	.file	"adc1000_drv.c"
	.text
.Ltext0:
	.type	check_snprintf, @function
check_snprintf:
.LFB14:
	.file 1 "../../../../4cx/src/../exports/include/misc_macros.h"
	.loc 1 105 0
	.cfi_startproc
	pushq	%rbp
	.cfi_def_cfa_offset 16
	.cfi_offset 6, -16
	movq	%rsp, %rbp
	.cfi_def_cfa_register 6
	subq	$240, %rsp
	movq	%rdi, -216(%rbp)
	movq	%rsi, -224(%rbp)
	movq	%rcx, -152(%rbp)
	movq	%r8, -144(%rbp)
	movq	%r9, -136(%rbp)
	testb	%al, %al
	je	.L2
	.loc 1 105 0
	movaps	%xmm0, -128(%rbp)
	movaps	%xmm1, -112(%rbp)
	movaps	%xmm2, -96(%rbp)
	movaps	%xmm3, -80(%rbp)
	movaps	%xmm4, -64(%rbp)
	movaps	%xmm5, -48(%rbp)
	movaps	%xmm6, -32(%rbp)
	movaps	%xmm7, -16(%rbp)
.L2:
	movq	%rdx, -232(%rbp)
	.loc 1 109 0
	movl	$24, -208(%rbp)
	movl	$48, -204(%rbp)
	leaq	16(%rbp), %rax
	movq	%rax, -200(%rbp)
	leaq	-176(%rbp), %rax
	movq	%rax, -192(%rbp)
	.loc 1 110 0
	leaq	-208(%rbp), %rcx
	movq	-232(%rbp), %rdx
	movq	-224(%rbp), %rsi
	movq	-216(%rbp), %rax
	movq	%rax, %rdi
	call	vsnprintf@PLT
	movl	%eax, -180(%rbp)
	.loc 1 113 0
	cmpl	$0, -180(%rbp)
	js	.L3
	.loc 1 113 0 is_stmt 0 discriminator 2
	movl	-180(%rbp), %eax
	movl	%eax, %eax
	movq	-224(%rbp), %rdx
	subq	$1, %rdx
	cmpq	%rdx, %rax
	jbe	.L4
.L3:
	.loc 1 113 0 discriminator 1
	movl	$1, %eax
	jmp	.L5
.L4:
	.loc 1 113 0 discriminator 3
	movl	$0, %eax
.L5:
	.loc 1 114 0 is_stmt 1 discriminator 4
	leave
	.cfi_def_cfa 7, 8
	ret
	.cfi_endproc
.LFE14:
	.size	check_snprintf, .-check_snprintf
	.data
	.align 32
	.type	pll_presets_table, @object
	.size	pll_presets_table, 36
pll_presets_table:
	.long	0
	.long	0
	.long	0
	.long	0
	.long	50372610
	.long	265985
	.long	2
	.long	33587204
	.long	805506817
	.align 32
	.type	chinfo, @object
	.size	chinfo, 1000
chinfo:
	.long	1
	.long	0
	.long	0
	.long	0
	.long	0
	.long	0
	.long	0
	.long	0
	.long	0
	.long	0
	.zero	32
	.long	7
	.long	0
	.long	2
	.long	0
	.long	2
	.long	0
	.long	2
	.long	0
	.long	2
	.long	0
	.long	3
	.long	0
	.zero	16
	.long	4
	.long	0
	.long	2
	.long	0
	.long	2
	.long	0
	.long	4
	.long	0
	.long	4
	.long	0
	.long	4
	.long	0
	.long	4
	.long	0
	.long	4
	.long	0
	.long	0
	.long	0
	.long	0
	.long	0
	.long	0
	.long	0
	.long	4
	.long	0
	.long	4
	.long	0
	.zero	72
	.long	3
	.long	0
	.long	6
	.long	0
	.long	6
	.long	0
	.long	6
	.long	0
	.long	6
	.long	0
	.long	6
	.long	0
	.long	6
	.long	0
	.long	6
	.long	0
	.long	6
	.long	0
	.long	3
	.long	0
	.zero	8
	.long	2
	.long	0
	.zero	8
	.long	5
	.long	-1
	.long	5
	.long	-1
	.long	6
	.long	0
	.long	5
	.long	20
	.long	5
	.long	21
	.long	5
	.long	22
	.long	5
	.long	23
	.zero	8
	.long	5
	.long	24
	.long	0
	.long	25
	.long	0
	.long	26
	.long	0
	.long	27
	.long	5
	.long	-1
	.long	5
	.long	-1
	.long	5
	.long	-1
	.long	5
	.long	-1
	.zero	16
	.long	5
	.long	-1
	.long	0
	.long	-1
	.long	0
	.long	-1
	.long	0
	.long	-1
	.long	5
	.long	-1
	.long	0
	.long	-1
	.long	0
	.long	-1
	.long	0
	.long	-1
	.long	5
	.long	-1
	.long	0
	.long	-1
	.long	0
	.long	-1
	.long	0
	.long	-1
	.long	6
	.long	0
	.long	6
	.long	0
	.long	6
	.long	0
	.long	6
	.long	0
	.long	6
	.long	0
	.long	6
	.long	0
	.long	6
	.long	0
	.long	6
	.long	0
	.long	6
	.long	0
	.long	6
	.long	0
	.long	6
	.long	0
	.long	6
	.long	0
	.long	6
	.long	0
	.long	6
	.long	0
	.long	6
	.long	0
	.long	6
	.long	0
	.long	6
	.long	0
	.long	6
	.long	0
	.long	6
	.long	0
	.long	0
	.long	0
	.long	0
	.long	0
	.long	0
	.long	0
	.long	6
	.long	0
	.long	0
	.long	0
	.long	0
	.long	0
	.long	0
	.long	0
	.long	6
	.long	0
	.long	0
	.long	0
	.long	0
	.long	0
	.long	0
	.long	0
	.long	6
	.long	0
	.long	0
	.long	0
	.long	0
	.long	0
	.long	0
	.long	0
	.long	6
	.long	0
	.long	0
	.long	0
	.long	0
	.long	0
	.long	0
	.long	0
	.long	6
	.long	0
	.long	0
	.long	0
	.long	0
	.long	0
	.long	0
	.long	0
	.long	6
	.long	0
	.section	.rodata
.LC0:
	.string	"int"
.LC1:
	.string	"front"
.LC2:
	.string	"back"
	.section	.data.rel.local,"aw",@progbits
	.align 32
	.type	adcNNN_timing_lkp, @object
	.size	adcNNN_timing_lkp, 64
adcNNN_timing_lkp:
	.quad	.LC0
	.long	0
	.zero	4
	.quad	.LC1
	.long	1
	.zero	4
	.quad	.LC2
	.long	2
	.zero	4
	.quad	0
	.long	0
	.zero	4
	.section	.rodata
.LC3:
	.string	"disable"
.LC4:
	.string	"back+sync"
	.section	.data.rel.local
	.align 32
	.type	adcNNN_trig_type_lkp, @object
	.size	adcNNN_trig_type_lkp, 96
adcNNN_trig_type_lkp:
	.quad	.LC3
	.long	0
	.zero	4
	.quad	.LC0
	.long	1
	.zero	4
	.quad	.LC1
	.long	2
	.zero	4
	.quad	.LC2
	.long	3
	.zero	4
	.quad	.LC4
	.long	4
	.zero	4
	.quad	0
	.long	0
	.zero	4
	.section	.rodata
.LC5:
	.string	"0.5"
.LC6:
	.string	"1"
.LC7:
	.string	"2"
.LC8:
	.string	"4"
	.section	.data.rel.local
	.align 32
	.type	adcNNN_range_lkp, @object
	.size	adcNNN_range_lkp, 80
adcNNN_range_lkp:
	.quad	.LC5
	.long	0
	.zero	4
	.quad	.LC6
	.long	1
	.zero	4
	.quad	.LC7
	.long	2
	.zero	4
	.quad	.LC8
	.long	3
	.zero	4
	.quad	0
	.long	0
	.zero	4
	.section	.rodata
.LC9:
	.string	"internal"
.LC10:
	.string	"vepp5_rfmeas"
	.section	.data.rel.local
	.align 32
	.type	adcNNN_pll_preset_lkp, @object
	.size	adcNNN_pll_preset_lkp, 48
adcNNN_pll_preset_lkp:
	.quad	.LC9
	.long	1
	.zero	4
	.quad	.LC10
	.long	2
	.zero	4
	.quad	0
	.long	0
	.zero	4
	.section	.rodata
.LC11:
	.string	"ptsofs"
.LC12:
	.string	"numpts"
.LC13:
	.string	"timing"
.LC14:
	.string	"frqdiv"
.LC15:
	.string	"trigger"
.LC16:
	.string	"trig_n"
.LC17:
	.string	"range"
.LC18:
	.string	"pll_preset"
.LC19:
	.string	"run_mode"
	.section	.data.rel,"aw",@progbits
	.align 32
	.type	adc1000_params, @object
	.size	adc1000_params, 560
adc1000_params:
	.quad	.LC11
	.long	50
	.long	872
	.quad	4
	.long	0
	.long	0
	.long	-1
	.long	0
	.long	49998
	.zero	12
	.quad	.LC12
	.long	50
	.long	876
	.quad	4
	.long	0
	.long	0
	.long	-1
	.long	1
	.long	50000
	.zero	12
	.quad	.LC13
	.long	52
	.long	880
	.quad	4
	.long	0
	.long	0
	.long	-1
	.zero	4
	.quad	adcNNN_timing_lkp
	.zero	8
	.quad	.LC14
	.long	50
	.long	884
	.quad	4
	.long	0
	.long	0
	.long	-1
	.long	0
	.long	65535
	.zero	12
	.quad	.LC15
	.long	52
	.long	904
	.quad	4
	.long	0
	.long	0
	.long	-1
	.zero	4
	.quad	adcNNN_trig_type_lkp
	.zero	8
	.quad	.LC16
	.long	50
	.long	908
	.quad	4
	.long	0
	.long	0
	.long	-1
	.long	0
	.long	7
	.zero	12
	.quad	.LC17
	.long	52
	.long	888
	.quad	4
	.long	0
	.long	0
	.long	-1
	.zero	4
	.quad	adcNNN_range_lkp
	.zero	8
	.quad	.LC18
	.long	52
	.long	948
	.quad	4
	.long	0
	.long	0
	.long	0
	.zero	4
	.quad	adcNNN_pll_preset_lkp
	.zero	8
	.quad	.LC19
	.long	52
	.long	864
	.quad	4
	.long	0
	.long	0
	.long	-1
	.zero	4
	.quad	pzframe_drv_run_mode_lkp
	.zero	8
	.quad	0
	.long	0
	.long	0
	.quad	0
	.long	0
	.long	0
	.zero	24
	.text
	.type	Return1Param, @function
Return1Param:
.LFB21:
	.file 2 "../src/adc4x250_meat.h"
	.loc 2 309 0
	.cfi_startproc
	pushq	%rbp
	.cfi_def_cfa_offset 16
	.cfi_offset 6, -16
	movq	%rsp, %rbp
	.cfi_def_cfa_register 6
	subq	$16, %rsp
	movq	%rdi, -8(%rbp)
	movl	%esi, -12(%rbp)
	movl	%edx, -16(%rbp)
	.loc 2 310 0
	movq	-8(%rbp), %rax
	movl	-12(%rbp), %edx
	movslq	%edx, %rdx
	leaq	196(%rdx), %rcx
	movl	-16(%rbp), %edx
	movl	%edx, 8(%rax,%rcx,4)
	movq	-8(%rbp), %rax
	movl	-12(%rbp), %edx
	movslq	%edx, %rdx
	addq	$196, %rdx
	movl	8(%rax,%rdx,4), %edx
	movq	-8(%rbp), %rax
	movl	-12(%rbp), %ecx
	movslq	%ecx, %rcx
	addq	$56, %rcx
	movl	%edx, 8(%rax,%rcx,4)
	movq	-8(%rbp), %rax
	movl	-12(%rbp), %edx
	movslq	%edx, %rdx
	addq	$56, %rdx
	movl	8(%rax,%rdx,4), %edx
	movq	-8(%rbp), %rax
	movl	208(%rax), %eax
	movl	-12(%rbp), %esi
	movl	$0, %ecx
	movl	%eax, %edi
	call	ReturnInt32Datum@PLT
	.loc 2 311 0
	leave
	.cfi_def_cfa 7, 8
	ret
	.cfi_endproc
.LFE21:
	.size	Return1Param, .-Return1Param
	.type	ReturnDevInfo, @function
ReturnDevInfo:
.LFB22:
	.loc 2 314 0
	.cfi_startproc
	pushq	%rbp
	.cfi_def_cfa_offset 16
	.cfi_offset 6, -16
	movq	%rsp, %rbp
	.cfi_def_cfa_register 6
	subq	$32, %rsp
	movq	%rdi, -24(%rbp)
	.loc 2 319 0
	movq	-24(%rbp), %rax
	movq	200(%rax), %rax
	movq	160(%rax), %rax
	movq	-24(%rbp), %rdx
	movl	212(%rdx), %ecx
	leaq	-4(%rbp), %rdx
	movl	$0, %esi
	movl	%ecx, %edi
	call	*%rax
	.loc 2 320 0
	movq	-24(%rbp), %rax
	movq	200(%rax), %rax
	movq	160(%rax), %rax
	movq	-24(%rbp), %rdx
	movl	212(%rdx), %ecx
	leaq	-8(%rbp), %rdx
	movl	$4, %esi
	movl	%ecx, %edi
	call	*%rax
	.loc 2 321 0
	movq	-24(%rbp), %rax
	movq	200(%rax), %rax
	movq	160(%rax), %rax
	movq	-24(%rbp), %rdx
	movl	212(%rdx), %ecx
	leaq	-12(%rbp), %rdx
	movl	$8, %esi
	movl	%ecx, %edi
	call	*%rax
	.loc 2 323 0
	movl	-8(%rbp), %eax
	movzbl	%al, %edx
	movq	-24(%rbp), %rax
	movl	%edx, 228(%rax)
	.loc 2 325 0
	movl	-4(%rbp), %eax
	movl	%eax, %edx
	movq	-24(%rbp), %rax
	movl	$40, %esi
	movq	%rax, %rdi
	call	Return1Param
	.loc 2 327 0
	movl	-8(%rbp), %eax
	movzbl	%al, %edx
	movq	-24(%rbp), %rax
	movl	$41, %esi
	movq	%rax, %rdi
	call	Return1Param
	.loc 2 328 0
	movl	-8(%rbp), %eax
	shrl	$8, %eax
	movzbl	%al, %edx
	movq	-24(%rbp), %rax
	movl	$42, %esi
	movq	%rax, %rdi
	call	Return1Param
	.loc 2 329 0
	movl	-8(%rbp), %eax
	shrl	$16, %eax
	movzbl	%al, %edx
	movq	-24(%rbp), %rax
	movl	$43, %esi
	movq	%rax, %rdi
	call	Return1Param
	.loc 2 330 0
	movl	-8(%rbp), %eax
	shrl	$24, %eax
	andl	$63, %eax
	movl	%eax, %edx
	movq	-24(%rbp), %rax
	movl	$44, %esi
	movq	%rax, %rdi
	call	Return1Param
	.loc 2 331 0
	movl	-8(%rbp), %eax
	shrl	$30, %eax
	movl	%eax, %edx
	movq	-24(%rbp), %rax
	movl	$45, %esi
	movq	%rax, %rdi
	call	Return1Param
	.loc 2 333 0
	movl	-12(%rbp), %eax
	movzwl	%ax, %edx
	movq	-24(%rbp), %rax
	movl	$46, %esi
	movq	%rax, %rdi
	call	Return1Param
	.loc 2 334 0
	movl	-12(%rbp), %eax
	shrl	$16, %eax
	movl	%eax, %edx
	movq	-24(%rbp), %rax
	movl	$47, %esi
	movq	%rax, %rdi
	call	Return1Param
	.loc 2 335 0
	leave
	.cfi_def_cfa 7, 8
	ret
	.cfi_endproc
.LFE22:
	.size	ReturnDevInfo, .-ReturnDevInfo
	.type	ReturnClbInfo, @function
ReturnClbInfo:
.LFB23:
	.loc 2 338 0
	.cfi_startproc
	pushq	%rbp
	.cfi_def_cfa_offset 16
	.cfi_offset 6, -16
	movq	%rsp, %rbp
	.cfi_def_cfa_register 6
	subq	$32, %rsp
	movq	%rdi, -24(%rbp)
	.loc 2 343 0
	movq	-24(%rbp), %rax
	movq	200(%rax), %rax
	movq	160(%rax), %rax
	movq	-24(%rbp), %rdx
	movl	212(%rdx), %ecx
	leaq	-8(%rbp), %rdx
	movl	$256, %esi
	movl	%ecx, %edi
	call	*%rax
	.loc 2 344 0
	movl	$0, -4(%rbp)
	jmp	.L10
.L11:
	.loc 2 347 0 discriminator 2
	movl	-8(%rbp), %edx
	movl	-4(%rbp), %eax
	addl	$14, %eax
	movl	%eax, %ecx
	shrl	%cl, %edx
	movl	%edx, %eax
	.loc 2 346 0 discriminator 2
	andl	$1, %eax
	movl	%eax, %edx
	movl	-4(%rbp), %eax
	leal	82(%rax), %ecx
	movq	-24(%rbp), %rax
	movl	%ecx, %esi
	movq	%rax, %rdi
	call	Return1Param
	.loc 2 349 0 discriminator 2
	movq	-24(%rbp), %rax
	movq	200(%rax), %rax
	movq	160(%rax), %rax
	.loc 2 350 0 discriminator 2
	movl	-4(%rbp), %edx
	subl	$-128, %edx
	sall	$2, %edx
	.loc 2 349 0 discriminator 2
	movl	%edx, %esi
	movq	-24(%rbp), %rdx
	movl	212(%rdx), %ecx
	leaq	-12(%rbp), %rdx
	movl	%ecx, %edi
	call	*%rax
	.loc 2 353 0 discriminator 2
	movl	-12(%rbp), %edx
	movl	-4(%rbp), %eax
	leal	86(%rax), %ecx
	movq	-24(%rbp), %rax
	movl	%ecx, %esi
	movq	%rax, %rdi
	call	Return1Param
	.loc 2 355 0 discriminator 2
	movq	-24(%rbp), %rax
	movq	200(%rax), %rax
	movq	160(%rax), %rax
	.loc 2 356 0 discriminator 2
	movl	-4(%rbp), %edx
	addl	$132, %edx
	sall	$2, %edx
	.loc 2 355 0 discriminator 2
	movl	%edx, %esi
	movq	-24(%rbp), %rdx
	movl	212(%rdx), %ecx
	leaq	-12(%rbp), %rdx
	movl	%ecx, %edi
	call	*%rax
	.loc 2 359 0 discriminator 2
	movl	-12(%rbp), %edx
	movl	-4(%rbp), %eax
	leal	90(%rax), %ecx
	movq	-24(%rbp), %rax
	movl	%ecx, %esi
	movq	%rax, %rdi
	call	Return1Param
	.loc 2 361 0 discriminator 2
	movq	-24(%rbp), %rax
	movq	200(%rax), %rax
	movq	160(%rax), %rax
	.loc 2 362 0 discriminator 2
	movl	-4(%rbp), %edx
	addl	$136, %edx
	sall	$2, %edx
	.loc 2 361 0 discriminator 2
	movl	%edx, %esi
	movq	-24(%rbp), %rdx
	movl	212(%rdx), %ecx
	leaq	-12(%rbp), %rdx
	movl	%ecx, %edi
	call	*%rax
	.loc 2 365 0 discriminator 2
	movl	-12(%rbp), %edx
	movl	-4(%rbp), %eax
	leal	94(%rax), %ecx
	movq	-24(%rbp), %rax
	movl	%ecx, %esi
	movq	%rax, %rdi
	call	Return1Param
	.loc 2 344 0 discriminator 2
	addl	$1, -4(%rbp)
.L10:
	.loc 2 344 0 is_stmt 0 discriminator 1
	cmpl	$3, -4(%rbp)
	jle	.L11
	.loc 2 367 0 is_stmt 1
	leave
	.cfi_def_cfa 7, 8
	ret
	.cfi_endproc
.LFE23:
	.size	ReturnClbInfo, .-ReturnClbInfo
	.type	ValidateParam, @function
ValidateParam:
.LFB24:
	.loc 2 370 0
	.cfi_startproc
	pushq	%rbp
	.cfi_def_cfa_offset 16
	.cfi_offset 6, -16
	movq	%rsp, %rbp
	.cfi_def_cfa_register 6
	movq	%rdi, -24(%rbp)
	movl	%esi, -28(%rbp)
	movl	%edx, -32(%rbp)
	.loc 2 371 0
	movq	-24(%rbp), %rax
	movq	%rax, -8(%rbp)
	.loc 2 375 0
	cmpl	$22, -28(%rbp)
	jne	.L13
	.loc 2 377 0
	cmpl	$0, -32(%rbp)
	je	.L15
	.loc 2 377 0 is_stmt 0 discriminator 1
	cmpl	$1, -32(%rbp)
	je	.L15
	.loc 2 378 0 is_stmt 1
	cmpl	$2, -32(%rbp)
	je	.L15
	.loc 2 379 0
	movl	$0, -32(%rbp)
	jmp	.L15
.L13:
	.loc 2 381 0
	cmpl	$23, -28(%rbp)
	jne	.L16
	.loc 2 383 0
	movq	-8(%rbp), %rax
	movl	228(%rax), %eax
	cmpl	$7, %eax
	jg	.L17
	.loc 2 383 0 is_stmt 0 discriminator 1
	movl	$0, -32(%rbp)
	jmp	.L15
.L17:
	.loc 2 385 0 is_stmt 1
	movq	-8(%rbp), %rax
	movl	228(%rax), %eax
	cmpl	$998, %eax
	jg	.L19
	.loc 2 385 0 is_stmt 0 discriminator 1
	movl	$0, -32(%rbp)
	jmp	.L15
.L19:
	.loc 2 387 0 is_stmt 1
	cmpl	$0, -32(%rbp)
	jns	.L20
	.loc 2 387 0 is_stmt 0 discriminator 1
	movl	$0, -32(%rbp)
	jmp	.L15
.L20:
	.loc 2 388 0 is_stmt 1
	cmpl	$65535, -32(%rbp)
	jle	.L15
	.loc 2 388 0 is_stmt 0 discriminator 1
	movl	$65535, -32(%rbp)
	jmp	.L15
.L16:
	.loc 2 390 0 is_stmt 1
	cmpl	$23, -28(%rbp)
	jle	.L21
	.loc 2 390 0 is_stmt 0 discriminator 1
	cmpl	$27, -28(%rbp)
	jg	.L21
	.loc 2 392 0 is_stmt 1
	cmpl	$0, -32(%rbp)
	jns	.L22
	.loc 2 392 0 is_stmt 0 discriminator 1
	movl	$0, -32(%rbp)
.L22:
	.loc 2 393 0 is_stmt 1
	cmpl	$3, -32(%rbp)
	jle	.L23
	.loc 2 393 0 is_stmt 0 discriminator 1
	movl	$3, -32(%rbp)
	jmp	.L15
.L23:
	.loc 2 393 0 discriminator 2
	jmp	.L15
.L21:
	.loc 2 395 0 is_stmt 1
	cmpl	$28, -28(%rbp)
	jne	.L24
	.loc 2 397 0
	cmpl	$0, -32(%rbp)
	je	.L15
	.loc 2 397 0 is_stmt 0 discriminator 1
	cmpl	$1, -32(%rbp)
	je	.L15
	.loc 2 398 0 is_stmt 1
	cmpl	$2, -32(%rbp)
	je	.L15
	.loc 2 399 0
	cmpl	$3, -32(%rbp)
	je	.L15
	.loc 2 400 0
	cmpl	$4, -32(%rbp)
	je	.L15
	.loc 2 401 0
	movl	$0, -32(%rbp)
	jmp	.L15
.L24:
	.loc 2 403 0
	cmpl	$29, -28(%rbp)
	jne	.L26
	.loc 2 405 0
	cmpl	$0, -32(%rbp)
	jns	.L27
	.loc 2 405 0 is_stmt 0 discriminator 1
	movl	$0, -32(%rbp)
.L27:
	.loc 2 406 0 is_stmt 1
	cmpl	$7, -32(%rbp)
	jle	.L15
	.loc 2 407 0
	movl	$7, -32(%rbp)
	jmp	.L15
.L26:
	.loc 2 409 0
	cmpl	$20, -28(%rbp)
	jne	.L29
	.loc 2 411 0
	andl	$-2, -32(%rbp)
	.loc 2 412 0
	cmpl	$0, -32(%rbp)
	jns	.L30
	.loc 2 412 0 is_stmt 0 discriminator 1
	movl	$0, -32(%rbp)
.L30:
	.loc 2 413 0 is_stmt 1
	cmpl	$49998, -32(%rbp)
	jle	.L15
	.loc 2 413 0 is_stmt 0 discriminator 1
	movl	$49998, -32(%rbp)
	jmp	.L15
.L29:
	.loc 2 415 0 is_stmt 1
	cmpl	$21, -28(%rbp)
	jne	.L15
	.loc 2 417 0
	cmpl	$1, -32(%rbp)
	jg	.L32
	.loc 2 417 0 is_stmt 0 discriminator 1
	movl	$2, -32(%rbp)
.L32:
	.loc 2 418 0 is_stmt 1
	cmpl	$50000, -32(%rbp)
	jle	.L15
	.loc 2 418 0 is_stmt 0 discriminator 1
	movl	$50000, -32(%rbp)
.L15:
	.loc 2 421 0 is_stmt 1
	movl	-32(%rbp), %eax
	.loc 2 422 0
	popq	%rbp
	.cfi_def_cfa 7, 8
	ret
	.cfi_endproc
.LFE24:
	.size	ValidateParam, .-ValidateParam
	.section	.rodata
.LC20:
	.string	"[%d] %s %d: %d 0x%08x 0x%08x\n"
	.text
	.type	ActivatePLLPreset, @function
ActivatePLLPreset:
.LFB25:
	.loc 2 425 0
	.cfi_startproc
	pushq	%rbp
	.cfi_def_cfa_offset 16
	.cfi_offset 6, -16
	movq	%rsp, %rbp
	.cfi_def_cfa_register 6
	subq	$32, %rsp
	movq	%rdi, -8(%rbp)
	movl	%esi, -12(%rbp)
	.loc 2 426 0
	movl	-12(%rbp), %eax
	movslq	%eax, %rdx
	movq	%rdx, %rax
	addq	%rax, %rax
	addq	%rdx, %rax
	salq	$2, %rax
	leaq	pll_presets_table(%rip), %rdx
	movl	8(%rax,%rdx), %esi
	movl	-12(%rbp), %eax
	movslq	%eax, %rdx
	movq	%rdx, %rax
	addq	%rax, %rax
	addq	%rdx, %rax
	salq	$2, %rax
	leaq	pll_presets_table(%rip), %rdx
	movl	4(%rax,%rdx), %ecx
	movl	-12(%rbp), %eax
	movslq	%eax, %rdx
	movq	%rdx, %rax
	addq	%rax, %rax
	addq	%rdx, %rax
	salq	$2, %rax
	leaq	pll_presets_table(%rip), %rdx
	movl	(%rax,%rdx), %r8d
	movq	-8(%rbp), %rax
	movl	208(%rax), %edx
	movq	stderr@GOTPCREL(%rip), %rax
	movq	(%rax), %rax
	movl	-12(%rbp), %edi
	movl	%esi, 8(%rsp)
	movl	%ecx, (%rsp)
	movl	%r8d, %r9d
	movl	%edi, %r8d
	leaq	__FUNCTION__.5952(%rip), %rcx
	leaq	.LC20(%rip), %rsi
	movq	%rax, %rdi
	movl	$0, %eax
	call	fprintf@PLT
	.loc 2 427 0
	movq	-8(%rbp), %rax
	movq	200(%rax), %rax
	movq	152(%rax), %rcx
	movl	-12(%rbp), %eax
	movslq	%eax, %rdx
	movq	%rdx, %rax
	addq	%rax, %rax
	addq	%rdx, %rax
	salq	$2, %rax
	leaq	pll_presets_table(%rip), %rdx
	movl	(%rax,%rdx), %edx
	movq	-8(%rbp), %rax
	movl	212(%rax), %eax
	movl	$300, %esi
	movl	%eax, %edi
	call	*%rcx
	.loc 2 428 0
	movq	-8(%rbp), %rax
	movq	200(%rax), %rax
	movq	152(%rax), %rcx
	movl	-12(%rbp), %eax
	movslq	%eax, %rdx
	movq	%rdx, %rax
	addq	%rax, %rax
	addq	%rdx, %rax
	salq	$2, %rax
	leaq	pll_presets_table(%rip), %rdx
	movl	4(%rax,%rdx), %edx
	movq	-8(%rbp), %rax
	movl	212(%rax), %eax
	movl	$304, %esi
	movl	%eax, %edi
	call	*%rcx
	.loc 2 429 0
	movq	-8(%rbp), %rax
	movq	200(%rax), %rax
	movq	152(%rax), %rcx
	movl	-12(%rbp), %eax
	movslq	%eax, %rdx
	movq	%rdx, %rax
	addq	%rax, %rax
	addq	%rdx, %rax
	salq	$2, %rax
	leaq	pll_presets_table(%rip), %rdx
	movl	8(%rax,%rdx), %edx
	movq	-8(%rbp), %rax
	movl	212(%rax), %eax
	movl	$308, %esi
	movl	%eax, %edi
	call	*%rcx
	.loc 2 430 0
	movq	-8(%rbp), %rax
	movq	200(%rax), %rax
	movq	152(%rax), %rax
	movq	-8(%rbp), %rdx
	movl	212(%rdx), %ecx
	movl	$1, %edx
	movl	$296, %esi
	movl	%ecx, %edi
	call	*%rax
	.loc 2 431 0
	leave
	.cfi_def_cfa 7, 8
	ret
	.cfi_endproc
.LFE25:
	.size	ActivatePLLPreset, .-ActivatePLLPreset
	.type	Init1Param, @function
Init1Param:
.LFB26:
	.loc 2 442 0
	.cfi_startproc
	pushq	%rbp
	.cfi_def_cfa_offset 16
	.cfi_offset 6, -16
	movq	%rsp, %rbp
	.cfi_def_cfa_register 6
	subq	$16, %rsp
	movq	%rdi, -8(%rbp)
	movl	%esi, -12(%rbp)
	movl	%edx, -16(%rbp)
	.loc 2 443 0
	movq	-8(%rbp), %rax
	movl	-12(%rbp), %edx
	movslq	%edx, %rdx
	addq	$196, %rdx
	movl	8(%rax,%rdx,4), %eax
	testl	%eax, %eax
	jns	.L36
	.loc 2 443 0 is_stmt 0 discriminator 1
	movq	-8(%rbp), %rax
	movl	-12(%rbp), %edx
	movslq	%edx, %rdx
	leaq	196(%rdx), %rcx
	movl	-16(%rbp), %edx
	movl	%edx, 8(%rax,%rcx,4)
.L36:
	.loc 2 444 0 is_stmt 1
	movq	-8(%rbp), %rax
	movl	-12(%rbp), %edx
	movslq	%edx, %rdx
	addq	$196, %rdx
	movl	8(%rax,%rdx,4), %edx
	movq	-8(%rbp), %rax
	movl	-12(%rbp), %ecx
	movl	%ecx, %esi
	movq	%rax, %rdi
	call	ValidateParam
	movq	-8(%rbp), %rdx
	movl	-12(%rbp), %ecx
	movslq	%ecx, %rcx
	addq	$196, %rcx
	movl	%eax, 8(%rdx,%rcx,4)
	.loc 2 445 0
	leave
	.cfi_def_cfa 7, 8
	ret
	.cfi_endproc
.LFE26:
	.size	Init1Param, .-Init1Param
	.section	.rodata
	.align 8
.LC21:
	.string	"WARNING: irq_n=%d, but ADC4x250 supports only =5"
.LC22:
	.string	"%s *** %s[%d] ***\n"
.LC23:
	.string	"\t\tTIMER=%08x r=%d\n"
	.align 8
.LC24:
	.string	"a32rd32(ADC4X250_R_TIMER): %d; probably a missing/unconfigured device, terminating"
.LC25:
	.string	"\t\tTRIG_SOURCE=%08x\n"
	.align 8
.LC26:
	.string	"\t\t[ADC250_CHAN_TRIG_TYPE]=%d [ADC250_CHAN_TRIG_INPUT]=%d\n"
	.text
	.type	InitParams, @function
InitParams:
.LFB27:
	.loc 2 447 0
	.cfi_startproc
	pushq	%rbp
	.cfi_def_cfa_offset 16
	.cfi_offset 6, -16
	movq	%rsp, %rbp
	.cfi_def_cfa_register 6
	pushq	%rbx
	subq	$56, %rsp
	.cfi_offset 3, -24
	movq	%rdi, -56(%rbp)
	.loc 2 448 0
	movq	-56(%rbp), %rax
	movq	%rax, -32(%rbp)
	.loc 2 461 0
	movq	-32(%rbp), %rax
	movq	200(%rax), %rax
	movq	152(%rax), %rax
	movq	-32(%rbp), %rdx
	movl	212(%rdx), %ecx
	movl	$2, %edx
	movl	$260, %esi
	movl	%ecx, %edi
	call	*%rax
	.loc 2 462 0
	movq	-32(%rbp), %rax
	movq	200(%rax), %rax
	movq	160(%rax), %rax
	movq	-32(%rbp), %rdx
	movl	212(%rdx), %ecx
	leaq	-40(%rbp), %rdx
	movl	$20, %esi
	movl	%ecx, %edi
	call	*%rax
	.loc 2 465 0
	movq	-32(%rbp), %rax
	movl	216(%rax), %eax
	cmpl	$5, %eax
	je	.L38
	.loc 2 466 0
	movq	-32(%rbp), %rax
	movl	216(%rax), %edx
	movq	-32(%rbp), %rax
	movl	208(%rax), %eax
	movl	%edx, %ecx
	leaq	.LC21(%rip), %rdx
	movl	$0, %esi
	movl	%eax, %edi
	movl	$0, %eax
	call	DoDriverLog@PLT
.L38:
	.loc 2 467 0
	movq	-32(%rbp), %rax
	movq	200(%rax), %rax
	movq	152(%rax), %rax
	movq	-32(%rbp), %rdx
	movl	216(%rdx), %edx
	movq	-32(%rbp), %rcx
	movl	212(%rcx), %ecx
	movl	$28, %esi
	movl	%ecx, %edi
	call	*%rax
	.loc 2 468 0
	movq	-32(%rbp), %rax
	movq	200(%rax), %rax
	movq	152(%rax), %rax
	movq	-32(%rbp), %rdx
	movl	220(%rdx), %edx
	movq	-32(%rbp), %rcx
	movl	212(%rcx), %ecx
	movl	$24, %esi
	movl	%ecx, %edi
	call	*%rax
	.loc 2 469 0
	movq	-32(%rbp), %rax
	movq	200(%rax), %rax
	movq	152(%rax), %rax
	movq	-32(%rbp), %rdx
	movl	212(%rdx), %ecx
	movl	$7, %edx
	movl	$16, %esi
	movl	%ecx, %edi
	call	*%rax
	.loc 2 474 0
	movq	-32(%rbp), %rax
	movq	%rax, %rdi
	call	ReturnDevInfo
	.loc 2 475 0
	movq	-32(%rbp), %rax
	movq	%rax, %rdi
	call	ReturnClbInfo
	.loc 2 478 0
	movq	-32(%rbp), %rax
	movq	200(%rax), %rax
	movq	160(%rax), %rax
	movq	-32(%rbp), %rdx
	movl	212(%rdx), %ecx
	leaq	-40(%rbp), %rdx
	movl	$264, %esi
	movl	%ecx, %edi
	call	*%rax
	movl	%eax, -36(%rbp)
	.loc 2 479 0
	movq	-32(%rbp), %rax
	movl	208(%rax), %ebx
	call	strcurtime_msc@PLT
	movq	%rax, %rdx
	movq	stderr@GOTPCREL(%rip), %rax
	movq	(%rax), %rax
	movl	%ebx, %r8d
	leaq	__FUNCTION__.5973(%rip), %rcx
	leaq	.LC22(%rip), %rsi
	movq	%rax, %rdi
	movl	$0, %eax
	call	fprintf@PLT
	.loc 2 480 0
	movl	-40(%rbp), %edx
	movq	stderr@GOTPCREL(%rip), %rax
	movq	(%rax), %rax
	movl	-36(%rbp), %ecx
	leaq	.LC23(%rip), %rsi
	movq	%rax, %rdi
	movl	$0, %eax
	call	fprintf@PLT
	.loc 2 481 0
	cmpl	$0, -36(%rbp)
	jns	.L39
	.loc 2 483 0
	movq	-32(%rbp), %rax
	movl	208(%rax), %eax
	movl	-36(%rbp), %edx
	movl	%edx, %ecx
	leaq	.LC24(%rip), %rdx
	movl	$0, %esi
	movl	%eax, %edi
	movl	$0, %eax
	call	DoDriverLog@PLT
	.loc 2 484 0
	movl	$-1, %eax
	jmp	.L54
.L39:
	.loc 2 486 0
	movl	-40(%rbp), %eax
	cmpl	$1, %eax
	ja	.L41
	.loc 2 486 0 is_stmt 0 discriminator 1
	movl	$1024, -40(%rbp)
.L41:
	.loc 2 487 0 is_stmt 1
	movl	-40(%rbp), %eax
	cmpl	$50000, %eax
	jbe	.L42
	.loc 2 487 0 is_stmt 0 discriminator 1
	movl	$50000, -40(%rbp)
.L42:
	.loc 2 488 0 is_stmt 1
	movl	-40(%rbp), %eax
	movl	%eax, %edx
	movq	-32(%rbp), %rax
	movl	$21, %esi
	movq	%rax, %rdi
	call	Init1Param
	.loc 2 489 0
	movq	-32(%rbp), %rax
	movl	$0, %edx
	movl	$20, %esi
	movq	%rax, %rdi
	call	Init1Param
	.loc 2 491 0
	movq	-32(%rbp), %rax
	movl	228(%rax), %eax
	cmpl	$7, %eax
	jg	.L43
	.loc 2 491 0 is_stmt 0 discriminator 1
	movl	$0, -40(%rbp)
	jmp	.L44
.L43:
	.loc 2 493 0 is_stmt 1
	movq	-32(%rbp), %rax
	movq	200(%rax), %rax
	movq	160(%rax), %rax
	movq	-32(%rbp), %rdx
	movl	212(%rdx), %ecx
	leaq	-40(%rbp), %rdx
	movl	$268, %esi
	movl	%ecx, %edi
	call	*%rax
.L44:
	.loc 2 494 0
	movl	-40(%rbp), %eax
	movl	%eax, %edx
	movq	-32(%rbp), %rax
	movl	$23, %esi
	movq	%rax, %rdi
	call	Init1Param
	.loc 2 496 0
	movq	-32(%rbp), %rax
	movl	948(%rax), %eax
	movl	%eax, -20(%rbp)
	.loc 2 497 0
	cmpl	$0, -20(%rbp)
	jle	.L45
	.loc 2 497 0 is_stmt 0 discriminator 1
	cmpl	$2, -20(%rbp)
	jg	.L45
	.loc 2 499 0 is_stmt 1
	movl	-20(%rbp), %edx
	movq	-32(%rbp), %rax
	movl	%edx, %esi
	movq	%rax, %rdi
	call	ActivatePLLPreset
	.loc 2 500 0
	movl	-20(%rbp), %eax
	movslq	%eax, %rdx
	movq	%rdx, %rax
	addq	%rax, %rax
	addq	%rdx, %rax
	salq	$2, %rax
	leaq	pll_presets_table(%rip), %rdx
	movl	(%rax,%rdx), %eax
	movl	%eax, %edx
	movq	-32(%rbp), %rax
	movl	$22, %esi
	movq	%rax, %rdi
	call	Init1Param
	jmp	.L46
.L45:
	.loc 2 504 0
	movq	-32(%rbp), %rax
	movq	200(%rax), %rax
	movq	160(%rax), %rax
	movq	-32(%rbp), %rdx
	movl	212(%rdx), %ecx
	leaq	-40(%rbp), %rdx
	movl	$300, %esi
	movl	%ecx, %edi
	call	*%rax
	.loc 2 505 0
	movl	-40(%rbp), %eax
	andl	$3, %eax
	movl	%eax, %edx
	movq	-32(%rbp), %rax
	movl	$22, %esi
	movq	%rax, %rdi
	call	Init1Param
.L46:
	.loc 2 509 0
	movq	-32(%rbp), %rax
	movq	200(%rax), %rax
	movq	160(%rax), %rax
	movq	-32(%rbp), %rdx
	movl	212(%rdx), %ecx
	leaq	-40(%rbp), %rdx
	movl	$276, %esi
	movl	%ecx, %edi
	call	*%rax
	.loc 2 510 0
	movl	-40(%rbp), %edx
	movq	stderr@GOTPCREL(%rip), %rax
	movq	(%rax), %rax
	leaq	.LC25(%rip), %rsi
	movq	%rax, %rdi
	movl	$0, %eax
	call	fprintf@PLT
	.loc 2 511 0
	movl	-40(%rbp), %eax
	andl	$7, %eax
	movl	%eax, %edx
	movq	-32(%rbp), %rax
	movl	$28, %esi
	movq	%rax, %rdi
	call	Init1Param
	.loc 2 515 0
	movl	-40(%rbp), %eax
	shrl	$3, %eax
	.loc 2 514 0
	andl	$7, %eax
	movl	%eax, %edx
	movq	-32(%rbp), %rax
	movl	$29, %esi
	movq	%rax, %rdi
	call	Init1Param
	.loc 2 517 0
	movq	-32(%rbp), %rax
	movl	908(%rax), %ecx
	movq	-32(%rbp), %rax
	movl	904(%rax), %edx
	movq	stderr@GOTPCREL(%rip), %rax
	movq	(%rax), %rax
	leaq	.LC26(%rip), %rsi
	movq	%rax, %rdi
	movl	$0, %eax
	call	fprintf@PLT
	.loc 2 519 0
	movl	$0, -20(%rbp)
	jmp	.L47
.L48:
	.loc 2 521 0 discriminator 2
	movq	-32(%rbp), %rax
	movq	200(%rax), %rax
	movq	160(%rax), %rax
	.loc 2 522 0 discriminator 2
	movl	-20(%rbp), %edx
	addl	$78, %edx
	sall	$2, %edx
	.loc 2 521 0 discriminator 2
	movl	%edx, %esi
	movq	-32(%rbp), %rdx
	movl	212(%rdx), %ecx
	leaq	-40(%rbp), %rdx
	movl	%ecx, %edi
	call	*%rax
	.loc 2 524 0 discriminator 2
	movl	-40(%rbp), %eax
	andl	$3, %eax
	movl	%eax, %edx
	movl	-20(%rbp), %eax
	leal	24(%rax), %ecx
	movq	-32(%rbp), %rax
	movl	%ecx, %esi
	movq	%rax, %rdi
	call	Init1Param
	.loc 2 519 0 discriminator 2
	addl	$1, -20(%rbp)
.L47:
	.loc 2 519 0 is_stmt 0 discriminator 1
	cmpl	$0, -20(%rbp)
	jle	.L48
	.loc 2 529 0 is_stmt 1
	movq	-32(%rbp), %rax
	movl	$-9, %edx
	movl	$54, %esi
	movq	%rax, %rdi
	call	Return1Param
	.loc 2 530 0
	movl	$0, -20(%rbp)
	jmp	.L49
.L50:
	.loc 2 532 0 discriminator 2
	movl	-20(%rbp), %eax
	leal	116(%rax), %ecx
	movq	-32(%rbp), %rax
	movl	$-32767, %edx
	movl	%ecx, %esi
	movq	%rax, %rdi
	call	Return1Param
	.loc 2 533 0 discriminator 2
	movl	-20(%rbp), %eax
	leal	120(%rax), %ecx
	movq	-32(%rbp), %rax
	movl	$32767, %edx
	movl	%ecx, %esi
	movq	%rax, %rdi
	call	Return1Param
	.loc 2 530 0 discriminator 2
	addl	$1, -20(%rbp)
.L49:
	.loc 2 530 0 is_stmt 0 discriminator 1
	cmpl	$0, -20(%rbp)
	jle	.L50
	.loc 2 535 0 is_stmt 1
	movq	-32(%rbp), %rax
	movl	$1, %edx
	movl	$124, %esi
	movq	%rax, %rdi
	call	Return1Param
	.loc 2 537 0
	movq	-32(%rbp), %rax
	movl	208(%rax), %ecx
	movabsq	$4661225614328463360, %rax
	xorpd	%xmm1, %xmm1
	movq	%rax, -64(%rbp)
	movsd	-64(%rbp), %xmm0
	movl	$1, %edx
	movl	$0, %esi
	movl	%ecx, %edi
	call	SetChanRDs@PLT
	.loc 2 542 0
	movq	-32(%rbp), %rax
	movl	208(%rax), %ecx
	movabsq	$4661225614328463360, %rax
	xorpd	%xmm1, %xmm1
	movq	%rax, -64(%rbp)
	movsd	-64(%rbp), %xmm0
	movl	$16, %edx
	movl	$100, %esi
	movl	%ecx, %edi
	call	SetChanRDs@PLT
	.loc 2 545 0
	movq	-32(%rbp), %rax
	movl	208(%rax), %ecx
	movabsq	$4652007308841189376, %rax
	xorpd	%xmm1, %xmm1
	movq	%rax, -64(%rbp)
	movsd	-64(%rbp), %xmm0
	movl	$1, %edx
	movl	$50, %esi
	movl	%ecx, %edi
	call	SetChanRDs@PLT
	.loc 2 548 0
	movq	-32(%rbp), %rax
	movl	208(%rax), %eax
	movq	-32(%rbp), %rsi
	movl	$0, %r8d
	leaq	adcNNN_hbt(%rip), %rcx
	movl	$100000, %edx
	movl	%eax, %edi
	call	sl_enq_tout_after@PLT
	.loc 2 552 0
	movl	$0, -20(%rbp)
	jmp	.L51
.L53:
	.loc 2 553 0
	movl	-20(%rbp), %eax
	cltq
	leaq	0(,%rax,8), %rdx
	leaq	chinfo(%rip), %rax
	movl	(%rdx,%rax), %eax
	cmpl	$2, %eax
	jne	.L52
	.loc 2 554 0 discriminator 1
	movq	-32(%rbp), %rax
	movl	-20(%rbp), %edx
	movslq	%edx, %rdx
	addq	$196, %rdx
	movl	8(%rax,%rdx,4), %eax
	.loc 2 553 0 discriminator 1
	testl	%eax, %eax
	js	.L52
	.loc 2 555 0
	movq	-32(%rbp), %rax
	movl	-20(%rbp), %edx
	movslq	%edx, %rdx
	addq	$196, %rdx
	movl	8(%rax,%rdx,4), %edx
	movq	-32(%rbp), %rax
	movl	-20(%rbp), %esi
	movl	$2, %ecx
	movq	%rax, %rdi
	call	pzframe_drv_rw_p@PLT
.L52:
	.loc 2 552 0
	addl	$1, -20(%rbp)
.L51:
	.loc 2 552 0 is_stmt 0 discriminator 1
	cmpl	$124, -20(%rbp)
	jle	.L53
	.loc 2 557 0 is_stmt 1
	movl	$1, %eax
.L54:
	.loc 2 558 0
	addq	$56, %rsp
	popq	%rbx
	popq	%rbp
	.cfi_def_cfa 7, 8
	ret
	.cfi_endproc
.LFE27:
	.size	InitParams, .-InitParams
	.type	StopDevice, @function
StopDevice:
.LFB28:
	.loc 2 560 0
	.cfi_startproc
	pushq	%rbp
	.cfi_def_cfa_offset 16
	.cfi_offset 6, -16
	movq	%rsp, %rbp
	.cfi_def_cfa_register 6
	subq	$32, %rsp
	movq	%rdi, -24(%rbp)
	.loc 2 561 0
	movq	-24(%rbp), %rax
	movq	%rax, -8(%rbp)
	.loc 2 563 0
	movq	-8(%rbp), %rax
	movq	200(%rax), %rax
	movq	152(%rax), %rax
	movq	-8(%rbp), %rdx
	movl	212(%rdx), %ecx
	movl	$0, %edx
	movl	$24, %esi
	movl	%ecx, %edi
	call	*%rax
	.loc 2 564 0
	movq	-8(%rbp), %rax
	movq	200(%rax), %rax
	movq	152(%rax), %rax
	movq	-8(%rbp), %rdx
	movl	212(%rdx), %ecx
	movl	$0, %edx
	movl	$16, %esi
	movl	%ecx, %edi
	call	*%rax
	.loc 2 565 0
	leave
	.cfi_def_cfa 7, 8
	ret
	.cfi_endproc
.LFE28:
	.size	StopDevice, .-StopDevice
	.type	StartMeasurements, @function
StartMeasurements:
.LFB29:
	.loc 2 568 0
	.cfi_startproc
	pushq	%rbp
	.cfi_def_cfa_offset 16
	.cfi_offset 6, -16
	movq	%rsp, %rbp
	.cfi_def_cfa_register 6
	subq	$48, %rsp
	movq	%rdi, -40(%rbp)
	.loc 2 569 0
	movq	-40(%rbp), %rax
	movq	%rax, -16(%rbp)
	.loc 2 575 0
	movq	-16(%rbp), %rax
	leaq	792(%rax), %rcx
	movq	-16(%rbp), %rax
	addq	$232, %rax
	movl	$560, %edx
	movq	%rcx, %rsi
	movq	%rax, %rdi
	call	memcpy@PLT
	.loc 2 578 0
	movq	-16(%rbp), %rax
	movl	312(%rax), %edx
	movq	-16(%rbp), %rax
	movl	316(%rax), %eax
	movl	$50000, %ecx
	subl	%eax, %ecx
	movl	%ecx, %eax
	cmpl	%eax, %edx
	jle	.L64
	.loc 2 579 0
	movq	-16(%rbp), %rax
	movl	316(%rax), %eax
	movl	$50000, %edx
	subl	%eax, %edx
	movq	-16(%rbp), %rax
	movl	$20, %esi
	movq	%rax, %rdi
	call	Return1Param
.L64:
	.loc 2 586 0
	movq	-16(%rbp), %rax
	leaq	232(%rax), %rcx
	movq	-16(%rbp), %rax
	addq	$1352, %rax
	movl	$560, %edx
	movq	%rcx, %rsi
	movq	%rax, %rdi
	call	memcpy@PLT
	.loc 2 589 0
	movq	-16(%rbp), %rax
	movq	200(%rax), %rax
	movq	152(%rax), %rax
	movq	-16(%rbp), %rdx
	movl	212(%rdx), %ecx
	movl	$2, %edx
	movl	$260, %esi
	movl	%ecx, %edi
	call	*%rax
	.loc 2 590 0
	movq	-16(%rbp), %rax
	movq	200(%rax), %rax
	movq	160(%rax), %rax
	movq	-16(%rbp), %rdx
	movl	212(%rdx), %ecx
	leaq	-20(%rbp), %rdx
	movl	$20, %esi
	movl	%ecx, %edi
	call	*%rax
	.loc 2 592 0
	movq	-16(%rbp), %rax
	movq	200(%rax), %rax
	movq	152(%rax), %rax
	.loc 2 593 0
	movq	-16(%rbp), %rdx
	movl	312(%rdx), %ecx
	.loc 2 594 0
	movq	-16(%rbp), %rdx
	movl	316(%rdx), %edx
	.loc 2 593 0
	addl	%ecx, %edx
	.loc 2 592 0
	movq	-16(%rbp), %rcx
	movl	212(%rcx), %ecx
	movl	$264, %esi
	movl	%ecx, %edi
	call	*%rax
	.loc 2 597 0
	movq	-16(%rbp), %rax
	movl	228(%rax), %eax
	cmpl	$7, %eax
	jle	.L58
	.loc 2 598 0
	movq	-16(%rbp), %rax
	movq	200(%rax), %rax
	movq	152(%rax), %rax
	.loc 2 599 0
	movq	-16(%rbp), %rdx
	movl	324(%rdx), %edx
	.loc 2 598 0
	movq	-16(%rbp), %rcx
	movl	212(%rcx), %ecx
	movl	$268, %esi
	movl	%ecx, %edi
	call	*%rax
.L58:
	.loc 2 600 0
	movl	$0, -4(%rbp)
	jmp	.L59
.L60:
	.loc 2 602 0 discriminator 2
	movq	-16(%rbp), %rax
	movq	200(%rax), %rax
	movq	152(%rax), %rax
	.loc 2 604 0 discriminator 2
	movl	-4(%rbp), %edx
	leal	24(%rdx), %ecx
	movq	-16(%rbp), %rdx
	movslq	%ecx, %rcx
	addq	$56, %rcx
	movl	8(%rdx,%rcx,4), %edx
	.loc 2 603 0 discriminator 2
	movl	-4(%rbp), %ecx
	addl	$78, %ecx
	sall	$2, %ecx
	.loc 2 602 0 discriminator 2
	movl	%ecx, %esi
	movq	-16(%rbp), %rcx
	movl	212(%rcx), %ecx
	movl	%ecx, %edi
	call	*%rax
	.loc 2 600 0 discriminator 2
	addl	$1, -4(%rbp)
.L59:
	.loc 2 600 0 is_stmt 0 discriminator 1
	cmpl	$0, -4(%rbp)
	jle	.L60
	.loc 2 606 0 is_stmt 1
	movq	-16(%rbp), %rax
	movq	200(%rax), %rax
	movq	152(%rax), %rax
	.loc 2 607 0
	movq	-16(%rbp), %rdx
	movl	344(%rdx), %edx
	movl	%edx, %ecx
	andl	$7, %ecx
	.loc 2 609 0
	movq	-16(%rbp), %rdx
	movl	348(%rdx), %edx
	andl	$7, %edx
	sall	$3, %edx
	.loc 2 608 0
	orl	%ecx, %edx
	.loc 2 606 0
	movq	-16(%rbp), %rcx
	movl	212(%rcx), %ecx
	movl	$276, %esi
	movl	%ecx, %edi
	call	*%rax
	.loc 2 613 0
	movq	-16(%rbp), %rax
	movl	288(%rax), %eax
	andl	$1, %eax
	testl	%eax, %eax
	je	.L61
	.loc 2 615 0
	movq	-16(%rbp), %rax
	movl	$4, 101984(%rax)
	.loc 2 616 0
	movq	-16(%rbp), %rax
	movl	$0, %edx
	movl	$14, %esi
	movq	%rax, %rdi
	call	Return1Param
	jmp	.L62
.L61:
	.loc 2 619 0
	movq	-16(%rbp), %rax
	movl	$1, 101984(%rax)
.L62:
	.loc 2 621 0
	movq	-16(%rbp), %rax
	movl	101984(%rax), %eax
	cmpl	$4, %eax
	setne	%al
	movzbl	%al, %edx
	movq	-16(%rbp), %rax
	movl	%edx, 101916(%rax)
	.loc 2 622 0
	movq	-16(%rbp), %rax
	movl	101984(%rax), %eax
	cmpl	$4, %eax
	sete	%al
	movzbl	%al, %edx
	movq	-16(%rbp), %rax
	movl	%edx, 101920(%rax)
	.loc 2 630 0
	movq	-16(%rbp), %rax
	movq	200(%rax), %rax
	movq	152(%rax), %rax
	movq	-16(%rbp), %rdx
	movl	101984(%rdx), %edx
	movq	-16(%rbp), %rcx
	movl	212(%rcx), %ecx
	movl	$260, %esi
	movl	%ecx, %edi
	call	*%rax
	.loc 2 632 0
	movl	$0, %eax
	.loc 2 633 0
	leave
	.cfi_def_cfa 7, 8
	ret
	.cfi_endproc
.LFE29:
	.size	StartMeasurements, .-StartMeasurements
	.type	TrggrMeasurements, @function
TrggrMeasurements:
.LFB30:
	.loc 2 636 0
	.cfi_startproc
	pushq	%rbp
	.cfi_def_cfa_offset 16
	.cfi_offset 6, -16
	movq	%rsp, %rbp
	.cfi_def_cfa_register 6
	subq	$32, %rsp
	movq	%rdi, -24(%rbp)
	.loc 2 637 0
	movq	-24(%rbp), %rax
	movq	%rax, -8(%rbp)
	.loc 2 640 0
	movq	-8(%rbp), %rax
	movl	101984(%rax), %eax
	cmpl	$4, %eax
	jne	.L66
	.loc 2 640 0 is_stmt 0 discriminator 1
	movl	$0, %eax
	jmp	.L67
.L66:
	.loc 2 643 0 is_stmt 1
	movq	-8(%rbp), %rax
	movq	200(%rax), %rax
	movq	152(%rax), %rax
	.loc 2 646 0
	movq	-8(%rbp), %rdx
	movl	348(%rdx), %edx
	sall	$3, %edx
	.loc 2 645 0
	orl	$1, %edx
	.loc 2 643 0
	movq	-8(%rbp), %rcx
	movl	212(%rcx), %ecx
	movl	$276, %esi
	movl	%ecx, %edi
	call	*%rax
	.loc 2 650 0
	movq	-8(%rbp), %rax
	movq	200(%rax), %rax
	movq	152(%rax), %rax
	movq	-8(%rbp), %rdx
	movl	212(%rdx), %ecx
	movl	$2, %edx
	movl	$260, %esi
	movl	%ecx, %edi
	call	*%rax
	.loc 2 652 0
	movq	-8(%rbp), %rax
	movq	200(%rax), %rax
	movq	152(%rax), %rax
	movq	-8(%rbp), %rdx
	movl	212(%rdx), %ecx
	movl	$1, %edx
	movl	$260, %esi
	movl	%ecx, %edi
	call	*%rax
	.loc 2 655 0
	movq	-8(%rbp), %rax
	movq	200(%rax), %rax
	movq	152(%rax), %rax
	.loc 2 656 0
	movq	-8(%rbp), %rdx
	movl	344(%rdx), %edx
	movl	%edx, %ecx
	andl	$7, %ecx
	.loc 2 658 0
	movq	-8(%rbp), %rdx
	movl	348(%rdx), %edx
	andl	$7, %edx
	sall	$3, %edx
	.loc 2 657 0
	orl	%ecx, %edx
	.loc 2 655 0
	movq	-8(%rbp), %rcx
	movl	212(%rcx), %ecx
	movl	$276, %esi
	movl	%ecx, %edi
	call	*%rax
	.loc 2 660 0
	movl	$0, %eax
.L67:
	.loc 2 661 0
	leave
	.cfi_def_cfa 7, 8
	ret
	.cfi_endproc
.LFE30:
	.size	TrggrMeasurements, .-TrggrMeasurements
	.type	AbortMeasurements, @function
AbortMeasurements:
.LFB31:
	.loc 2 664 0
	.cfi_startproc
	pushq	%rbp
	.cfi_def_cfa_offset 16
	.cfi_offset 6, -16
	movq	%rsp, %rbp
	.cfi_def_cfa_register 6
	subq	$48, %rsp
	movq	%rdi, -40(%rbp)
	.loc 2 665 0
	movq	-40(%rbp), %rax
	movq	%rax, -16(%rbp)
	.loc 2 669 0
	movq	-16(%rbp), %rax
	movq	200(%rax), %rax
	movq	152(%rax), %rax
	movq	-16(%rbp), %rdx
	movl	212(%rdx), %ecx
	movl	$2, %edx
	movl	$260, %esi
	movl	%ecx, %edi
	call	*%rax
	.loc 2 670 0
	movq	-16(%rbp), %rax
	movq	200(%rax), %rax
	movq	160(%rax), %rax
	movq	-16(%rbp), %rdx
	movl	212(%rdx), %ecx
	leaq	-20(%rbp), %rdx
	movl	$20, %esi
	movl	%ecx, %edi
	call	*%rax
	.loc 2 672 0
	movq	-16(%rbp), %rax
	movl	316(%rax), %eax
	testl	%eax, %eax
	je	.L69
	.loc 2 676 0
	movq	-16(%rbp), %rax
	movl	316(%rax), %eax
	.loc 2 673 0
	cltq
	leaq	(%rax,%rax), %rdx
	movq	-16(%rbp), %rax
	addq	$1912, %rax
	movq	%rdx, %rsi
	movq	%rax, %rdi
	call	bzero@PLT
.L69:
	.loc 2 678 0
	movl	$100, -4(%rbp)
	jmp	.L70
.L71:
	.loc 2 679 0 discriminator 2
	movq	-16(%rbp), %rax
	movl	-4(%rbp), %edx
	movslq	%edx, %rdx
	addq	$196, %rdx
	movl	$0, 8(%rax,%rdx,4)
	movq	-16(%rbp), %rax
	movl	-4(%rbp), %edx
	movslq	%edx, %rdx
	addq	$196, %rdx
	movl	8(%rax,%rdx,4), %edx
	movq	-16(%rbp), %rax
	movl	-4(%rbp), %ecx
	movslq	%ecx, %rcx
	addq	$56, %rcx
	movl	%edx, 8(%rax,%rcx,4)
	.loc 2 678 0 discriminator 2
	addl	$1, -4(%rbp)
.L70:
	.loc 2 678 0 is_stmt 0 discriminator 1
	cmpl	$115, -4(%rbp)
	jle	.L71
	.loc 2 681 0 is_stmt 1
	movl	$1, %eax
	.loc 2 682 0
	leave
	.cfi_def_cfa 7, 8
	ret
	.cfi_endproc
.LFE31:
	.size	AbortMeasurements, .-AbortMeasurements
	.type	ReadMeasurements, @function
ReadMeasurements:
.LFB32:
	.loc 2 685 0
	.cfi_startproc
	pushq	%rbp
	.cfi_def_cfa_offset 16
	.cfi_offset 6, -16
	movq	%rsp, %rbp
	.cfi_def_cfa_register 6
	pushq	%r15
	pushq	%r14
	pushq	%r13
	pushq	%r12
	pushq	%rbx
	subq	$120, %rsp
	.cfi_offset 15, -24
	.cfi_offset 14, -32
	.cfi_offset 13, -40
	.cfi_offset 12, -48
	.cfi_offset 3, -56
	movq	%rdi, -152(%rbp)
	.loc 2 686 0
	movq	-152(%rbp), %rax
	movq	%rax, -80(%rbp)
	.loc 2 704 0
	movq	-80(%rbp), %rax
	movq	200(%rax), %rax
	movq	160(%rax), %rax
	movq	-80(%rbp), %rdx
	movl	212(%rdx), %ecx
	leaq	-128(%rbp), %rdx
	movl	$20, %esi
	movl	%ecx, %edi
	call	*%rax
	.loc 2 706 0
	movq	-80(%rbp), %rax
	movq	200(%rax), %rax
	movq	152(%rax), %rax
	movq	-80(%rbp), %rdx
	movl	212(%rdx), %ecx
	movl	$2, %edx
	movl	$260, %esi
	movl	%ecx, %edi
	call	*%rax
.LBB2:
	.loc 2 718 0
	movq	-80(%rbp), %rax
	addq	$114280, %rax
	movq	%rax, -88(%rbp)
	movq	-80(%rbp), %rax
	addq	$101992, %rax
	movq	%rax, -96(%rbp)
	movq	-80(%rbp), %rax
	addq	$106088, %rax
	movq	%rax, -104(%rbp)
	movq	-80(%rbp), %rax
	addq	$110184, %rax
	movq	%rax, -112(%rbp)
	.loc 2 720 0
	movq	-88(%rbp), %r12
	movq	-96(%rbp), %r13
	movq	-104(%rbp), %r14
	movq	-112(%rbp), %r15
	.loc 2 721 0
	movq	-80(%rbp), %rax
	leaq	1912(%rax), %rbx
	.loc 2 723 0
	movl	$1024, -116(%rbp)
	.loc 2 724 0
	movq	-80(%rbp), %rax
	movl	228(%rax), %eax
	cmpl	$12345678, %eax
	jne	.L74
	.loc 2 725 0
	movl	$0, -68(%rbp)
	jmp	.L75
.L76:
	.loc 2 727 0 discriminator 2
	movq	%r12, %rax
	leaq	4(%rax), %r12
	movl	(%rax), %eax
	movl	%eax, %edi
	.loc 2 728 0 discriminator 2
	movq	%r13, %rax
	leaq	4(%rax), %r13
	movl	(%rax), %eax
	movl	%eax, %esi
	.loc 2 729 0 discriminator 2
	movq	%r14, %rax
	leaq	4(%rax), %r14
	movl	(%rax), %eax
	movl	%eax, %ecx
	.loc 2 730 0 discriminator 2
	movq	%r15, %rax
	leaq	4(%rax), %r15
	movl	(%rax), %eax
	movl	%eax, %r8d
	.loc 2 731 0 discriminator 2
	movq	%rbx, %rax
	leaq	2(%rax), %rbx
	movl	%edi, %edx
	movw	%dx, (%rax)
	.loc 2 732 0 discriminator 2
	movq	%rbx, %rax
	leaq	2(%rax), %rbx
	movl	%esi, %edx
	movw	%dx, (%rax)
	.loc 2 733 0 discriminator 2
	movq	%rbx, %rax
	leaq	2(%rax), %rbx
	movl	%ecx, %edx
	movw	%dx, (%rax)
	.loc 2 734 0 discriminator 2
	movq	%rbx, %rax
	leaq	2(%rax), %rbx
	movl	%r8d, %edx
	movw	%dx, (%rax)
	.loc 2 735 0 discriminator 2
	movq	%rbx, %rax
	leaq	2(%rax), %rbx
	movl	%edi, %edx
	shrl	$16, %edx
	movw	%dx, (%rax)
	.loc 2 736 0 discriminator 2
	movq	%rbx, %rax
	leaq	2(%rax), %rbx
	movl	%esi, %edx
	shrl	$16, %edx
	movw	%dx, (%rax)
	.loc 2 737 0 discriminator 2
	movq	%rbx, %rax
	leaq	2(%rax), %rbx
	movl	%ecx, %edx
	shrl	$16, %edx
	movw	%dx, (%rax)
	.loc 2 738 0 discriminator 2
	movq	%rbx, %rax
	leaq	2(%rax), %rbx
	movl	%r8d, %edx
	shrl	$16, %edx
	movw	%dx, (%rax)
	.loc 2 725 0 discriminator 2
	addl	$1, -68(%rbp)
.L75:
	.loc 2 725 0 is_stmt 0 discriminator 1
	movl	-68(%rbp), %eax
	cmpl	-116(%rbp), %eax
	jl	.L76
.L74:
.LBE2:
	.loc 2 743 0 is_stmt 1
	movq	-80(%rbp), %rax
	movl	316(%rax), %eax
	addl	$1, %eax
	movl	%eax, %edx
	shrl	$31, %edx
	addl	%edx, %eax
	sarl	%eax
	movl	%eax, -116(%rbp)
	.loc 2 744 0
	movl	$0, -52(%rbp)
	jmp	.L77
.L81:
	.loc 2 746 0
	movq	-80(%rbp), %rax
	movl	316(%rax), %eax
	imull	-52(%rbp), %eax
	cltq
	addq	$952, %rax
	leaq	(%rax,%rax), %rdx
	movq	-80(%rbp), %rax
	addq	%rdx, %rax
	addq	$8, %rax
	movq	%rax, -64(%rbp)
	.loc 2 747 0
	movl	-52(%rbp), %eax
	addl	$2, %eax
	sall	$19, %eax
	movl	%eax, %edx
	.loc 2 748 0
	movq	-80(%rbp), %rax
	movl	312(%rax), %eax
	movl	%eax, %ecx
	shrl	$31, %ecx
	addl	%ecx, %eax
	sarl	%eax
	.loc 2 747 0
	addl	%edx, %eax
	.loc 2 748 0
	addl	$36, %eax
	sall	$2, %eax
	.loc 2 747 0
	movl	%eax, -120(%rbp)
	.loc 2 752 0
	movq	-80(%rbp), %rax
	movq	200(%rax), %rax
	movq	304(%rax), %rax
	movq	-80(%rbp), %rdx
	movl	212(%rdx), %edi
	movl	-116(%rbp), %ecx
	movq	-64(%rbp), %rdx
	movl	-120(%rbp), %esi
	call	*%rax
	movl	%eax, -68(%rbp)
	.loc 2 756 0
	movq	-80(%rbp), %rax
	movl	228(%rax), %eax
	cmpl	$6, %eax
	jg	.L78
	.loc 2 757 0
	movl	-116(%rbp), %eax
	movl	%eax, -68(%rbp)
	jmp	.L79
.L80:
	.loc 2 759 0 discriminator 2
	movq	-64(%rbp), %rax
	movzwl	(%rax), %eax
	movw	%ax, -122(%rbp)
	.loc 2 760 0 discriminator 2
	movq	-64(%rbp), %rax
	movzwl	2(%rax), %edx
	movq	-64(%rbp), %rax
	movw	%dx, (%rax)
	addq	$2, -64(%rbp)
	.loc 2 761 0 discriminator 2
	movq	-64(%rbp), %rax
	movzwl	-122(%rbp), %edx
	movw	%dx, (%rax)
	addq	$2, -64(%rbp)
	.loc 2 757 0 discriminator 2
	subl	$1, -68(%rbp)
.L79:
	.loc 2 757 0 is_stmt 0 discriminator 1
	cmpl	$0, -68(%rbp)
	jg	.L80
.L78:
	.loc 2 744 0 is_stmt 1
	addl	$1, -52(%rbp)
.L77:
	.loc 2 744 0 is_stmt 0 discriminator 1
	cmpl	$0, -52(%rbp)
	jle	.L81
	.loc 2 780 0 is_stmt 1
	movl	$100, -68(%rbp)
	jmp	.L82
.L83:
	.loc 2 781 0 discriminator 2
	movq	-80(%rbp), %rax
	movl	-68(%rbp), %edx
	movslq	%edx, %rdx
	addq	$196, %rdx
	movl	$0, 8(%rax,%rdx,4)
	movq	-80(%rbp), %rax
	movl	-68(%rbp), %edx
	movslq	%edx, %rdx
	addq	$196, %rdx
	movl	8(%rax,%rdx,4), %edx
	movq	-80(%rbp), %rax
	movl	-68(%rbp), %ecx
	movslq	%ecx, %rcx
	addq	$56, %rcx
	movl	%edx, 8(%rax,%rcx,4)
	.loc 2 780 0 discriminator 2
	addl	$1, -68(%rbp)
.L82:
	.loc 2 780 0 is_stmt 0 discriminator 1
	cmpl	$115, -68(%rbp)
	jle	.L83
	.loc 2 784 0 is_stmt 1
	movq	-80(%rbp), %rax
	movq	200(%rax), %rax
	movq	160(%rax), %rax
	movq	-80(%rbp), %rdx
	movl	212(%rdx), %ecx
	leaq	-132(%rbp), %rdx
	movl	$256, %esi
	movl	%ecx, %edi
	call	*%rax
	.loc 2 785 0
	movl	$0, -68(%rbp)
	jmp	.L84
.L85:
	.loc 2 786 0 discriminator 2
	movl	-68(%rbp), %eax
	leal	64(%rax), %edi
	.loc 2 787 0 discriminator 2
	movl	-68(%rbp), %eax
	addl	$64, %eax
	.loc 2 788 0 discriminator 2
	movl	-132(%rbp), %esi
	movl	-68(%rbp), %edx
	addl	$10, %edx
	movl	%edx, %ecx
	shrl	%cl, %esi
	movl	%esi, %edx
	.loc 2 787 0 discriminator 2
	movl	%edx, %esi
	andl	$1, %esi
	movq	-80(%rbp), %rdx
	movslq	%eax, %rcx
	addq	$196, %rcx
	movl	%esi, 8(%rdx,%rcx,4)
	movq	-80(%rbp), %rdx
	cltq
	addq	$196, %rax
	movl	8(%rdx,%rax,4), %edx
	.loc 2 786 0 discriminator 2
	movq	-80(%rbp), %rax
	movslq	%edi, %rcx
	addq	$56, %rcx
	movl	%edx, 8(%rax,%rcx,4)
	.loc 2 785 0 discriminator 2
	addl	$1, -68(%rbp)
.L84:
	.loc 2 785 0 is_stmt 0 discriminator 1
	cmpl	$3, -68(%rbp)
	jle	.L85
	.loc 2 791 0 is_stmt 1
	movl	$0, %eax
	.loc 2 792 0
	addq	$120, %rsp
	popq	%rbx
	popq	%r12
	popq	%r13
	popq	%r14
	popq	%r15
	popq	%rbp
	.cfi_def_cfa 7, 8
	ret
	.cfi_endproc
.LFE32:
	.size	ReadMeasurements, .-ReadMeasurements
	.type	adcNNN_hbt, @function
adcNNN_hbt:
.LFB33:
	.loc 2 797 0
	.cfi_startproc
	pushq	%rbp
	.cfi_def_cfa_offset 16
	.cfi_offset 6, -16
	movq	%rsp, %rbp
	.cfi_def_cfa_register 6
	subq	$48, %rsp
	movl	%edi, -20(%rbp)
	movq	%rsi, -32(%rbp)
	movl	%edx, -24(%rbp)
	movq	%rcx, -40(%rbp)
	.loc 2 798 0
	movq	-32(%rbp), %rax
	movq	%rax, -8(%rbp)
	.loc 2 801 0
	movq	-32(%rbp), %rsi
	movl	-20(%rbp), %eax
	movl	$0, %r8d
	leaq	adcNNN_hbt(%rip), %rcx
	movl	$100000, %edx
	movl	%eax, %edi
	call	sl_enq_tout_after@PLT
	.loc 2 810 0
	leave
	.cfi_def_cfa 7, 8
	ret
	.cfi_endproc
.LFE33:
	.size	adcNNN_hbt, .-adcNNN_hbt
	.type	PrepareRetbufs, @function
PrepareRetbufs:
.LFB34:
	.loc 2 813 0
	.cfi_startproc
	pushq	%rbp
	.cfi_def_cfa_offset 16
	.cfi_offset 6, -16
	movq	%rsp, %rbp
	.cfi_def_cfa_register 6
	movq	%rdi, -24(%rbp)
	movl	%esi, -28(%rbp)
	.loc 2 814 0
	movq	-24(%rbp), %rax
	movq	%rax, -16(%rbp)
	.loc 2 820 0
	movl	$0, -4(%rbp)
	.loc 2 824 0
	movq	-16(%rbp), %rax
	movl	324(%rax), %eax
	leal	1(%rax), %edx
	movq	-16(%rbp), %rax
	movl	%edx, 440(%rax)
	.loc 2 825 0
	movq	-16(%rbp), %rax
	movl	$1, 444(%rax)
	.loc 2 826 0
	movl	$0, -8(%rbp)
	jmp	.L90
.L91:
	.loc 2 828 0 discriminator 2
	movl	-8(%rbp), %eax
	leal	70(%rax), %edx
	movq	-16(%rbp), %rax
	movslq	%edx, %rdx
	addq	$56, %rdx
	movl	$1, 8(%rax,%rdx,4)
	.loc 2 829 0 discriminator 2
	movl	-8(%rbp), %eax
	leal	74(%rax), %edx
	movq	-16(%rbp), %rax
	movslq	%edx, %rdx
	addq	$56, %rdx
	movl	$-32767, 8(%rax,%rdx,4)
	.loc 2 832 0 discriminator 2
	movl	-8(%rbp), %eax
	leal	78(%rax), %edx
	movq	-16(%rbp), %rax
	movslq	%edx, %rdx
	addq	$56, %rdx
	movl	$32767, 8(%rax,%rdx,4)
	.loc 2 826 0 discriminator 2
	addl	$1, -8(%rbp)
.L90:
	.loc 2 826 0 is_stmt 0 discriminator 1
	cmpl	$0, -8(%rbp)
	jle	.L91
	.loc 2 840 0 is_stmt 1
	movq	-16(%rbp), %rax
	movl	300(%rax), %eax
	testl	%eax, %eax
	je	.L92
	.loc 2 841 0
	movl	$100, -8(%rbp)
	jmp	.L93
.L94:
	.loc 2 843 0 discriminator 2
	movq	-16(%rbp), %rax
	movl	-4(%rbp), %edx
	movslq	%edx, %rdx
	leaq	29592(%rdx), %rcx
	movl	-8(%rbp), %edx
	movl	%edx, 8(%rax,%rcx,4)
	.loc 2 844 0 discriminator 2
	movq	-16(%rbp), %rax
	movl	-4(%rbp), %edx
	movslq	%edx, %rdx
	addq	$29732, %rdx
	movl	$10, 8(%rax,%rdx,4)
	.loc 2 845 0 discriminator 2
	movq	-16(%rbp), %rax
	movl	-4(%rbp), %edx
	movslq	%edx, %rdx
	addq	$29872, %rdx
	movl	$1, 8(%rax,%rdx,4)
	.loc 2 846 0 discriminator 2
	movl	-8(%rbp), %eax
	cltq
	addq	$56, %rax
	leaq	0(,%rax,4), %rdx
	movq	-16(%rbp), %rax
	addq	%rdx, %rax
	leaq	8(%rax), %rcx
	movq	-16(%rbp), %rax
	movl	-4(%rbp), %edx
	movslq	%edx, %rdx
	addq	$15006, %rdx
	movq	%rcx, 8(%rax,%rdx,8)
	.loc 2 847 0 discriminator 2
	movq	-16(%rbp), %rax
	movl	-4(%rbp), %edx
	movslq	%edx, %rdx
	addq	$30292, %rdx
	movl	$0, 8(%rax,%rdx,4)
	.loc 2 848 0 discriminator 2
	addl	$1, -4(%rbp)
	.loc 2 841 0 discriminator 2
	addl	$1, -8(%rbp)
.L93:
	.loc 2 841 0 is_stmt 0 discriminator 1
	cmpl	$115, -8(%rbp)
	jle	.L94
.L92:
	.loc 2 854 0 is_stmt 1
	movl	$0, -8(%rbp)
	jmp	.L95
.L98:
	.loc 2 855 0
	movl	-8(%rbp), %eax
	cltq
	leaq	0(,%rax,8), %rdx
	leaq	chinfo(%rip), %rax
	movl	(%rdx,%rax), %eax
	cmpl	$5, %eax
	jne	.L96
	.loc 2 857 0
	movl	-8(%rbp), %eax
	cltq
	leaq	0(,%rax,8), %rdx
	leaq	chinfo(%rip), %rax
	movl	4(%rdx,%rax), %eax
	testl	%eax, %eax
	js	.L97
	.loc 2 858 0
	movl	-8(%rbp), %eax
	cltq
	leaq	0(,%rax,8), %rdx
	leaq	chinfo(%rip), %rax
	movl	4(%rdx,%rax), %edx
	movq	-16(%rbp), %rax
	movslq	%edx, %rdx
	addq	$56, %rdx
	movl	8(%rax,%rdx,4), %edx
	movq	-16(%rbp), %rax
	movl	-8(%rbp), %ecx
	movslq	%ecx, %rcx
	addq	$56, %rcx
	movl	%edx, 8(%rax,%rcx,4)
.L97:
	.loc 2 859 0
	movq	-16(%rbp), %rax
	movl	-8(%rbp), %edx
	movslq	%edx, %rdx
	addq	$56, %rdx
	movl	8(%rax,%rdx,4), %edx
	movq	-16(%rbp), %rax
	movl	-8(%rbp), %ecx
	movslq	%ecx, %rcx
	addq	$196, %rcx
	movl	%edx, 8(%rax,%rcx,4)
	.loc 2 860 0
	movq	-16(%rbp), %rax
	movl	-4(%rbp), %edx
	movslq	%edx, %rdx
	leaq	29592(%rdx), %rcx
	movl	-8(%rbp), %edx
	movl	%edx, 8(%rax,%rcx,4)
	.loc 2 861 0
	movq	-16(%rbp), %rax
	movl	-4(%rbp), %edx
	movslq	%edx, %rdx
	addq	$29732, %rdx
	movl	$10, 8(%rax,%rdx,4)
	.loc 2 862 0
	movq	-16(%rbp), %rax
	movl	-4(%rbp), %edx
	movslq	%edx, %rdx
	addq	$29872, %rdx
	movl	$1, 8(%rax,%rdx,4)
	.loc 2 863 0
	movl	-8(%rbp), %eax
	cltq
	addq	$56, %rax
	leaq	0(,%rax,4), %rdx
	movq	-16(%rbp), %rax
	addq	%rdx, %rax
	leaq	8(%rax), %rcx
	movq	-16(%rbp), %rax
	movl	-4(%rbp), %edx
	movslq	%edx, %rdx
	addq	$15006, %rdx
	movq	%rcx, 8(%rax,%rdx,8)
	.loc 2 864 0
	movq	-16(%rbp), %rax
	movl	-4(%rbp), %edx
	movslq	%edx, %rdx
	addq	$30292, %rdx
	movl	$0, 8(%rax,%rdx,4)
	.loc 2 865 0
	addl	$1, -4(%rbp)
.L96:
	.loc 2 854 0
	addl	$1, -8(%rbp)
.L95:
	.loc 2 854 0 is_stmt 0 discriminator 1
	cmpl	$124, -8(%rbp)
	jle	.L98
	.loc 2 869 0 is_stmt 1
	movq	-16(%rbp), %rax
	movl	101988(%rax), %eax
	testl	%eax, %eax
	je	.L99
	.loc 2 871 0
	movq	-16(%rbp), %rax
	movl	-4(%rbp), %edx
	movslq	%edx, %rdx
	addq	$29592, %rdx
	movl	$0, 8(%rax,%rdx,4)
	.loc 2 872 0
	movq	-16(%rbp), %rax
	movl	-4(%rbp), %edx
	movslq	%edx, %rdx
	addq	$29732, %rdx
	movl	$9, 8(%rax,%rdx,4)
	.loc 2 873 0
	movq	-16(%rbp), %rax
	movl	316(%rax), %edx
	movq	-16(%rbp), %rax
	movl	-4(%rbp), %ecx
	movslq	%ecx, %rcx
	addq	$29872, %rcx
	movl	%edx, 8(%rax,%rcx,4)
	.loc 2 874 0
	movq	-16(%rbp), %rax
	leaq	1912(%rax), %rcx
	movq	-16(%rbp), %rax
	movl	-4(%rbp), %edx
	movslq	%edx, %rdx
	addq	$15006, %rdx
	movq	%rcx, 8(%rax,%rdx,8)
	.loc 2 875 0
	movq	-16(%rbp), %rax
	movl	-4(%rbp), %edx
	movslq	%edx, %rdx
	leaq	30292(%rdx), %rcx
	movl	-28(%rbp), %edx
	movl	%edx, 8(%rax,%rcx,4)
	.loc 2 876 0
	addl	$1, -4(%rbp)
.L99:
	.loc 2 891 0
	movq	-16(%rbp), %rax
	movl	-4(%rbp), %edx
	movslq	%edx, %rdx
	addq	$29592, %rdx
	movl	$9, 8(%rax,%rdx,4)
	.loc 2 892 0
	movq	-16(%rbp), %rax
	movl	-4(%rbp), %edx
	movslq	%edx, %rdx
	addq	$29732, %rdx
	movl	$10, 8(%rax,%rdx,4)
	.loc 2 893 0
	movq	-16(%rbp), %rax
	movl	-4(%rbp), %edx
	movslq	%edx, %rdx
	addq	$29872, %rdx
	movl	$1, 8(%rax,%rdx,4)
	.loc 2 894 0
	movq	-16(%rbp), %rax
	leaq	268(%rax), %rcx
	movq	-16(%rbp), %rax
	movl	-4(%rbp), %edx
	movslq	%edx, %rdx
	addq	$15006, %rdx
	movq	%rcx, 8(%rax,%rdx,8)
	.loc 2 895 0
	movq	-16(%rbp), %rax
	movl	-4(%rbp), %edx
	movslq	%edx, %rdx
	leaq	30292(%rdx), %rcx
	movl	-28(%rbp), %edx
	movl	%edx, 8(%rax,%rcx,4)
	.loc 2 896 0
	addl	$1, -4(%rbp)
	.loc 2 898 0
	movq	-16(%rbp), %rax
	movl	$0, 101988(%rax)
	.loc 2 904 0
	movq	-16(%rbp), %rax
	movl	-4(%rbp), %edx
	movl	%edx, 96(%rax)
	.loc 2 905 0
	movq	-16(%rbp), %rax
	leaq	118376(%rax), %rdx
	movq	-16(%rbp), %rax
	movq	%rdx, 104(%rax)
	.loc 2 906 0
	movq	-16(%rbp), %rax
	leaq	118936(%rax), %rdx
	movq	-16(%rbp), %rax
	movq	%rdx, 112(%rax)
	.loc 2 907 0
	movq	-16(%rbp), %rax
	leaq	119496(%rax), %rdx
	movq	-16(%rbp), %rax
	movq	%rdx, 120(%rax)
	.loc 2 908 0
	movq	-16(%rbp), %rax
	leaq	120056(%rax), %rdx
	movq	-16(%rbp), %rax
	movq	%rdx, 128(%rax)
	.loc 2 909 0
	movq	-16(%rbp), %rax
	leaq	121176(%rax), %rdx
	movq	-16(%rbp), %rax
	movq	%rdx, 136(%rax)
	.loc 2 910 0
	movq	-16(%rbp), %rax
	movq	$0, 144(%rax)
	.loc 2 918 0
	popq	%rbp
	.cfi_def_cfa 7, 8
	ret
	.cfi_endproc
.LFE34:
	.size	PrepareRetbufs, .-PrepareRetbufs
	.section	.rodata
	.align 8
.LC30:
	.string	"\t[%d] detectPLL: %d: %d 0x%08x 0x%08x\n"
	.text
	.type	adc1000_rw_p, @function
adc1000_rw_p:
.LFB35:
	.loc 2 924 0
	.cfi_startproc
	pushq	%rbp
	.cfi_def_cfa_offset 16
	.cfi_offset 6, -16
	movq	%rsp, %rbp
	.cfi_def_cfa_register 6
	subq	$96, %rsp
	movl	%edi, -52(%rbp)
	movq	%rsi, -64(%rbp)
	movl	%edx, -56(%rbp)
	movl	%ecx, -68(%rbp)
	movq	%r8, -80(%rbp)
	movq	%r9, -88(%rbp)
	.loc 2 925 0
	movq	-64(%rbp), %rax
	movq	%rax, -16(%rbp)
	.loc 2 938 0
	movl	$0, -4(%rbp)
	jmp	.L101
.L127:
	.loc 2 940 0
	movl	-4(%rbp), %eax
	cltq
	leaq	0(,%rax,4), %rdx
	movq	-80(%rbp), %rax
	addq	%rdx, %rax
	movl	(%rax), %eax
	movl	%eax, -20(%rbp)
	.loc 2 943 0
	cmpl	$51, -20(%rbp)
	jne	.L102
	.loc 2 945 0
	movq	-16(%rbp), %rax
	movl	156(%rax), %edx
	movl	-20(%rbp), %esi
	movl	-52(%rbp), %eax
	movl	$0, %ecx
	movl	%eax, %edi
	call	ReturnInt32Datum@PLT
	.loc 2 946 0
	jmp	.L103
.L102:
	.loc 2 950 0
	cmpl	$0, -20(%rbp)
	js	.L104
	.loc 2 950 0 is_stmt 0 discriminator 1
	cmpl	$124, -20(%rbp)
	jg	.L104
	.loc 2 951 0 is_stmt 1 discriminator 1
	movl	-20(%rbp), %eax
	cltq
	leaq	0(,%rax,8), %rdx
	leaq	chinfo(%rip), %rax
	movl	(%rdx,%rax), %eax
	movl	%eax, -24(%rbp)
	.loc 2 950 0 discriminator 1
	cmpl	$0, -24(%rbp)
	jne	.L105
.L104:
	.loc 2 953 0
	movl	-20(%rbp), %esi
	movl	-52(%rbp), %eax
	movl	$32, %ecx
	movl	$0, %edx
	movl	%eax, %edi
	call	ReturnInt32Datum@PLT
	jmp	.L103
.L105:
	.loc 2 955 0
	cmpl	$1, -24(%rbp)
	jne	.L106
	.loc 2 958 0
	cmpl	$0, -20(%rbp)
	jne	.L107
	.loc 2 959 0
	movq	-16(%rbp), %rax
	movl	$1, 101988(%rax)
.L107:
	.loc 2 966 0
	movq	-16(%rbp), %rax
	movq	%rax, %rdi
	call	pzframe_drv_req_mes@PLT
	jmp	.L103
.L106:
	.loc 2 968 0
	cmpl	$7, -24(%rbp)
	je	.L103
	.loc 2 972 0
	cmpl	$2, -56(%rbp)
	jne	.L108
	.loc 2 974 0
	movl	-4(%rbp), %eax
	cltq
	leaq	0(,%rax,4), %rdx
	movq	16(%rbp), %rax
	addq	%rdx, %rax
	movl	(%rax), %eax
	cmpl	$1, %eax
	jne	.L103
	.loc 2 975 0 discriminator 1
	movl	-4(%rbp), %eax
	cltq
	leaq	0(,%rax,4), %rdx
	movq	-88(%rbp), %rax
	addq	%rdx, %rax
	movl	(%rax), %eax
	.loc 2 974 0 discriminator 1
	cmpl	$10, %eax
	je	.L109
	.loc 2 975 0
	movl	-4(%rbp), %eax
	cltq
	leaq	0(,%rax,4), %rdx
	movq	-88(%rbp), %rax
	addq	%rdx, %rax
	movl	(%rax), %eax
	cmpl	$138, %eax
	jne	.L103
.L109:
	.loc 2 977 0
	movl	-4(%rbp), %eax
	cltq
	leaq	0(,%rax,8), %rdx
	movq	24(%rbp), %rax
	addq	%rdx, %rax
	movq	(%rax), %rax
	movl	(%rax), %eax
	movl	%eax, -8(%rbp)
	jmp	.L110
.L108:
	.loc 2 981 0
	movl	$-1, -8(%rbp)
.L110:
	.loc 2 983 0
	cmpl	$5, -24(%rbp)
	je	.L111
	.loc 2 983 0 is_stmt 0 discriminator 1
	cmpl	$6, -24(%rbp)
	jne	.L112
.L111:
	.loc 2 986 0 is_stmt 1
	movq	-16(%rbp), %rax
	movl	-20(%rbp), %edx
	movslq	%edx, %rdx
	addq	$56, %rdx
	movl	8(%rax,%rdx,4), %edx
	movl	-20(%rbp), %esi
	movl	-52(%rbp), %eax
	movl	$0, %ecx
	movl	%eax, %edi
	call	ReturnInt32Datum@PLT
	jmp	.L103
.L112:
	.loc 2 988 0
	cmpl	$4, -24(%rbp)
	jne	.L113
	.loc 2 990 0
	cmpl	$2, -56(%rbp)
	jne	.L114
	.loc 2 991 0
	movq	-16(%rbp), %rax
	movl	-8(%rbp), %edx
	movl	-20(%rbp), %ecx
	movl	%ecx, %esi
	movq	%rax, %rdi
	call	ValidateParam
	movq	-16(%rbp), %rdx
	movl	-20(%rbp), %ecx
	movslq	%ecx, %rcx
	addq	$196, %rcx
	movl	%eax, 8(%rdx,%rcx,4)
.L114:
	.loc 2 992 0
	movq	-16(%rbp), %rax
	movl	-20(%rbp), %edx
	movslq	%edx, %rdx
	addq	$196, %rdx
	movl	8(%rax,%rdx,4), %edx
	movl	-20(%rbp), %esi
	movl	-52(%rbp), %eax
	movl	$0, %ecx
	movl	%eax, %edi
	call	ReturnInt32Datum@PLT
	jmp	.L103
.L113:
	.loc 2 994 0
	cmpl	$3, -24(%rbp)
	jne	.L115
	.loc 2 996 0
	cmpl	$14, -20(%rbp)
	jne	.L116
	.loc 2 998 0
	cmpl	$2, -56(%rbp)
	jne	.L117
	.loc 2 999 0
	cmpl	$0, -8(%rbp)
	setne	%al
	movzbl	%al, %edx
	movq	-16(%rbp), %rax
	movl	-20(%rbp), %ecx
	movslq	%ecx, %rcx
	addq	$196, %rcx
	movl	%edx, 8(%rax,%rcx,4)
.L117:
	.loc 2 1000 0
	movq	-16(%rbp), %rax
	movl	-20(%rbp), %edx
	movslq	%edx, %rdx
	addq	$196, %rdx
	movl	8(%rax,%rdx,4), %edx
	movl	-20(%rbp), %esi
	movl	-52(%rbp), %eax
	movl	$0, %ecx
	movl	%eax, %edi
	call	ReturnInt32Datum@PLT
	jmp	.L103
.L116:
	.loc 2 1002 0
	cmpl	$48, -20(%rbp)
	jne	.L119
	.loc 2 1004 0
	movq	-16(%rbp), %rax
	movq	200(%rax), %rax
	movq	160(%rax), %rax
	movq	-16(%rbp), %rdx
	movl	212(%rdx), %ecx
	leaq	-28(%rbp), %rdx
	movl	$256, %esi
	movl	%ecx, %edi
	call	*%rax
	.loc 2 1005 0
	movl	-28(%rbp), %eax
	andl	$32, %eax
	testl	%eax, %eax
	setne	%al
	movzbl	%al, %edx
	movl	-20(%rbp), %esi
	movl	-52(%rbp), %eax
	movl	$0, %ecx
	movl	%eax, %edi
	call	ReturnInt32Datum@PLT
	jmp	.L103
.L119:
	.loc 2 1007 0
	cmpl	$39, -20(%rbp)
	jne	.L103
	.loc 2 1009 0
	cmpl	$2, -56(%rbp)
	jne	.L120
	.loc 2 1009 0 is_stmt 0 discriminator 1
	cmpl	$0, -8(%rbp)
	jle	.L120
	.loc 2 1010 0 is_stmt 1
	cmpl	$2, -8(%rbp)
	jg	.L120
	.loc 2 1012 0
	movl	-8(%rbp), %edx
	movq	-16(%rbp), %rax
	movl	%edx, %esi
	movq	%rax, %rdi
	call	ActivatePLLPreset
	.loc 2 1013 0
	movq	-16(%rbp), %rax
	movl	228(%rax), %eax
	cmpl	$998, %eax
	jg	.L120
	.loc 2 1015 0
	movl	-8(%rbp), %edx
	movl	-52(%rbp), %eax
	movl	$0, %ecx
	movl	$39, %esi
	movl	%eax, %edi
	call	ReturnInt32Datum@PLT
	.loc 2 1016 0
	movl	-8(%rbp), %eax
	movslq	%eax, %rdx
	movq	%rdx, %rax
	addq	%rax, %rax
	addq	%rdx, %rax
	salq	$2, %rax
	leaq	pll_presets_table(%rip), %rdx
	movl	(%rax,%rdx), %eax
	movl	%eax, %edx
	movq	-16(%rbp), %rax
	movl	$22, %esi
	movq	%rax, %rdi
	call	Return1Param
	.loc 2 1017 0
	jmp	.L103
.L120:
	.loc 2 1021 0
	movq	-16(%rbp), %rax
	movq	200(%rax), %rax
	movq	160(%rax), %rax
	movq	-16(%rbp), %rdx
	movl	212(%rdx), %ecx
	leaq	-32(%rbp), %rdx
	movl	$300, %esi
	movl	%ecx, %edi
	call	*%rax
	.loc 2 1022 0
	movq	-16(%rbp), %rax
	movq	200(%rax), %rax
	movq	160(%rax), %rax
	movq	-16(%rbp), %rdx
	movl	212(%rdx), %ecx
	leaq	-36(%rbp), %rdx
	movl	$304, %esi
	movl	%ecx, %edi
	call	*%rax
	.loc 2 1023 0
	movq	-16(%rbp), %rax
	movq	200(%rax), %rax
	movq	160(%rax), %rax
	movq	-16(%rbp), %rdx
	movl	212(%rdx), %ecx
	leaq	-40(%rbp), %rdx
	movl	$308, %esi
	movl	%ecx, %edi
	call	*%rax
	.loc 2 1025 0
	movl	$2, -8(%rbp)
	jmp	.L121
.L124:
	.loc 2 1026 0
	movl	-8(%rbp), %eax
	movslq	%eax, %rdx
	movq	%rdx, %rax
	addq	%rax, %rax
	addq	%rdx, %rax
	salq	$2, %rax
	leaq	pll_presets_table(%rip), %rdx
	movl	(%rax,%rdx), %edx
	movl	-32(%rbp), %eax
	cmpl	%eax, %edx
	jne	.L122
	.loc 2 1027 0 discriminator 1
	movl	-8(%rbp), %eax
	movslq	%eax, %rdx
	movq	%rdx, %rax
	addq	%rax, %rax
	addq	%rdx, %rax
	salq	$2, %rax
	leaq	pll_presets_table(%rip), %rdx
	movl	4(%rax,%rdx), %edx
	movl	-36(%rbp), %eax
	.loc 2 1026 0 discriminator 1
	cmpl	%eax, %edx
	jne	.L122
	.loc 2 1028 0
	movl	-8(%rbp), %eax
	movslq	%eax, %rdx
	movq	%rdx, %rax
	addq	%rax, %rax
	addq	%rdx, %rax
	salq	$2, %rax
	leaq	pll_presets_table(%rip), %rdx
	movl	8(%rax,%rdx), %edx
	movl	-40(%rbp), %eax
	.loc 2 1027 0
	cmpl	%eax, %edx
	jne	.L122
	.loc 2 1028 0
	jmp	.L123
.L122:
	.loc 2 1025 0
	subl	$1, -8(%rbp)
.L121:
	.loc 2 1025 0 is_stmt 0 discriminator 1
	cmpl	$0, -8(%rbp)
	jg	.L124
.L123:
	.loc 2 1029 0 is_stmt 1
	movl	-40(%rbp), %esi
	movl	-36(%rbp), %r8d
	movl	-32(%rbp), %edi
	movq	-16(%rbp), %rax
	movl	208(%rax), %edx
	movq	stderr@GOTPCREL(%rip), %rax
	movq	(%rax), %rax
	movl	-8(%rbp), %ecx
	movl	%esi, (%rsp)
	movl	%r8d, %r9d
	movl	%edi, %r8d
	leaq	.LC30(%rip), %rsi
	movq	%rax, %rdi
	movl	$0, %eax
	call	fprintf@PLT
	.loc 2 1031 0
	movl	-8(%rbp), %edx
	movl	-52(%rbp), %eax
	movl	$0, %ecx
	movl	$39, %esi
	movl	%eax, %edi
	call	ReturnInt32Datum@PLT
	.loc 2 1032 0
	movl	-32(%rbp), %eax
	movl	%eax, %edx
	movq	-16(%rbp), %rax
	movl	$22, %esi
	movq	%rax, %rdi
	call	Return1Param
	.loc 2 1033 0
	movl	-36(%rbp), %eax
	movl	%eax, %edx
	movl	-52(%rbp), %eax
	movl	$0, %ecx
	movl	$98, %esi
	movl	%eax, %edi
	call	ReturnInt32Datum@PLT
	.loc 2 1034 0
	movl	-40(%rbp), %eax
	movl	%eax, %edx
	movl	-52(%rbp), %eax
	movl	$0, %ecx
	movl	$99, %esi
	movl	%eax, %edi
	call	ReturnInt32Datum@PLT
	jmp	.L103
.L115:
	.loc 2 1039 0
	cmpl	$2, -56(%rbp)
	jne	.L125
	.loc 2 1039 0 is_stmt 0 discriminator 1
	movl	-8(%rbp), %eax
	jmp	.L126
.L125:
	.loc 2 1039 0 discriminator 2
	movl	$0, %eax
.L126:
	.loc 2 1039 0 discriminator 3
	movq	-16(%rbp), %rdi
	movl	-56(%rbp), %edx
	movl	-20(%rbp), %esi
	movl	%edx, %ecx
	movl	%eax, %edx
	call	pzframe_drv_rw_p@PLT
.L103:
	.loc 2 938 0 is_stmt 1
	addl	$1, -4(%rbp)
.L101:
	.loc 2 938 0 is_stmt 0 discriminator 1
	movl	-4(%rbp), %eax
	cmpl	-68(%rbp), %eax
	jl	.L127
	.loc 2 1046 0 is_stmt 1
	leave
	.cfi_def_cfa 7, 8
	ret
	.cfi_endproc
.LFE35:
	.size	adc1000_rw_p, .-adc1000_rw_p
	.section	.rodata
.LC31:
	.string	"\r%s devid=%-2d total=%d"
	.text
	.type	adc1000_irq_p, @function
adc1000_irq_p:
.LFB36:
	.loc 2 1087 0
	.cfi_startproc
	pushq	%rbp
	.cfi_def_cfa_offset 16
	.cfi_offset 6, -16
	movq	%rsp, %rbp
	.cfi_def_cfa_register 6
	pushq	%rbx
	subq	$56, %rsp
	.cfi_offset 3, -24
	movl	%edi, -36(%rbp)
	movq	%rsi, -48(%rbp)
	movl	%edx, -40(%rbp)
	movl	%ecx, -52(%rbp)
	.loc 2 1088 0
	movq	-48(%rbp), %rax
	movq	%rax, -24(%rbp)
	.loc 2 1094 0
	movq	-24(%rbp), %rax
	movl	220(%rax), %eax
	cmpl	-52(%rbp), %eax
	jne	.L128
	.loc 2 1095 0
	movl	total_irqs.6120(%rip), %eax
	addl	$1, %eax
	movl	%eax, total_irqs.6120(%rip)
	movl	total_irqs.6120(%rip), %ebx
	call	strcurtime_msc@PLT
	movq	%rax, %rdx
	movq	stderr@GOTPCREL(%rip), %rax
	movq	(%rax), %rax
	movl	-36(%rbp), %ecx
	movl	%ebx, %r8d
	leaq	.LC31(%rip), %rsi
	movq	%rax, %rdi
	movl	$0, %eax
	call	fprintf@PLT
	.loc 2 1097 0
	movq	-24(%rbp), %rax
	movq	200(%rax), %rax
	movq	160(%rax), %rax
	movq	-24(%rbp), %rdx
	movl	212(%rdx), %ecx
	leaq	-28(%rbp), %rdx
	movl	$20, %esi
	movl	%ecx, %edi
	call	*%rax
	.loc 2 1099 0
	movq	-24(%rbp), %rax
	movq	200(%rax), %rax
	movq	152(%rax), %rax
	movq	-24(%rbp), %rdx
	movl	212(%rdx), %ecx
	movl	$2, %edx
	movl	$260, %esi
	movl	%ecx, %edi
	call	*%rax
	.loc 2 1103 0
	movq	-24(%rbp), %rax
	movl	101916(%rax), %eax
	testl	%eax, %eax
	jne	.L131
	.loc 2 1103 0 is_stmt 0 discriminator 1
	movq	-24(%rbp), %rax
	movl	101920(%rax), %eax
	testl	%eax, %eax
	je	.L131
	movq	-24(%rbp), %rax
	movq	%rax, %rdi
	call	ReadMeasurements
.L131:
	.loc 2 1104 0 is_stmt 1
	movq	-24(%rbp), %rax
	movl	101916(%rax), %ecx
	movq	-24(%rbp), %rax
	movl	$0, %edx
	movl	%ecx, %esi
	movq	%rax, %rdi
	call	pzframe_drv_drdy_p@PLT
.L128:
	.loc 2 1106 0
	addq	$56, %rsp
	popq	%rbx
	popq	%rbp
	.cfi_def_cfa 7, 8
	ret
	.cfi_endproc
.LFE36:
	.size	adc1000_irq_p, .-adc1000_irq_p
	.section	.rodata
	.align 8
.LC32:
	.string	"%s businfo[2]=%08x jumpers=0x%x irq=%d vector=%d\n"
	.text
	.type	adc1000_init_d, @function
adc1000_init_d:
.LFB37:
	.loc 2 1111 0
	.cfi_startproc
	pushq	%rbp
	.cfi_def_cfa_offset 16
	.cfi_offset 6, -16
	movq	%rsp, %rbp
	.cfi_def_cfa_register 6
	pushq	%r13
	pushq	%r12
	pushq	%rbx
	subq	$168, %rsp
	.cfi_offset 13, -24
	.cfi_offset 12, -32
	.cfi_offset 3, -40
	movl	%edi, -68(%rbp)
	movq	%rsi, -80(%rbp)
	movl	%edx, -72(%rbp)
	movq	%rcx, -88(%rbp)
	movq	%r8, -96(%rbp)
	.loc 2 1112 0
	movq	-80(%rbp), %rax
	movq	%rax, -48(%rbp)
	.loc 2 1118 0
	movq	-88(%rbp), %rax
	movl	(%rax), %eax
	movl	%eax, -52(%rbp)
	.loc 2 1119 0
	movq	-88(%rbp), %rax
	movl	4(%rax), %eax
	movl	%eax, -56(%rbp)
	.loc 2 1120 0
	movq	-88(%rbp), %rax
	movl	8(%rax), %eax
	movl	%eax, -60(%rbp)
	.loc 2 1121 0
	movq	-88(%rbp), %rax
	addq	$12, %rax
	movl	(%rax), %eax
	andl	$7, %eax
	movl	%eax, %edx
	movq	-48(%rbp), %rax
	movl	%edx, 216(%rax)
	.loc 2 1122 0
	movq	-88(%rbp), %rax
	addq	$16, %rax
	movl	(%rax), %eax
	movzbl	%al, %edx
	movq	-48(%rbp), %rax
	movl	%edx, 220(%rax)
	.loc 2 1123 0
	movq	-48(%rbp), %rax
	movl	-60(%rbp), %edx
	movl	%edx, 224(%rax)
	.loc 2 1124 0
	movq	-48(%rbp), %rax
	movl	220(%rax), %r12d
	movq	-48(%rbp), %rax
	movl	216(%rax), %r13d
	movq	-88(%rbp), %rax
	addq	$8, %rax
	movl	(%rax), %ebx
	call	strcurtime_msc@PLT
	movq	%rax, %rdx
	movq	stderr@GOTPCREL(%rip), %rax
	movq	(%rax), %rax
	movl	-60(%rbp), %ecx
	movl	%r12d, (%rsp)
	movl	%r13d, %r9d
	movl	%ecx, %r8d
	movl	%ebx, %ecx
	leaq	.LC32(%rip), %rsi
	movq	%rax, %rdi
	movl	$0, %eax
	call	fprintf@PLT
	.loc 2 1126 0
	movl	-68(%rbp), %eax
	movl	%eax, %edi
	call	GetLayerVMT@PLT
	movq	-48(%rbp), %rdx
	movq	%rax, 200(%rdx)
	.loc 2 1127 0
	movq	-48(%rbp), %rax
	movl	-68(%rbp), %edx
	movl	%edx, 208(%rax)
	.loc 2 1128 0
	movq	-48(%rbp), %rax
	movq	200(%rax), %rax
	movq	(%rax), %rax
	movq	-48(%rbp), %rdx
	movl	220(%rdx), %r9d
	movq	-48(%rbp), %rdx
	movl	216(%rdx), %r8d
	.loc 2 1130 0
	movl	-60(%rbp), %edx
	sall	$24, %edx
	.loc 2 1128 0
	movl	%edx, %r11d
	movl	-56(%rbp), %ecx
	movl	-52(%rbp), %edx
	movq	-80(%rbp), %rsi
	movl	-68(%rbp), %edi
	movl	$0, 48(%rsp)
	movq	$0, 40(%rsp)
	leaq	adc1000_irq_p(%rip), %r10
	movq	%r10, 32(%rsp)
	movl	%r9d, 24(%rsp)
	movl	%r8d, 16(%rsp)
	movl	$9, 8(%rsp)
	movl	$32, (%rsp)
	movl	$12058624, %r9d
	movl	%r11d, %r8d
	call	*%rax
	movq	-48(%rbp), %rdx
	movl	%eax, 212(%rdx)
	.loc 2 1134 0
	movq	-48(%rbp), %rax
	movl	212(%rax), %eax
	testl	%eax, %eax
	jns	.L133
	.loc 2 1134 0 is_stmt 0 discriminator 1
	movq	-48(%rbp), %rax
	movl	212(%rax), %eax
	jmp	.L134
.L133:
	.loc 2 1136 0 is_stmt 1
	movl	$0, -36(%rbp)
	jmp	.L135
.L139:
	.loc 2 1138 0
	movl	-36(%rbp), %eax
	cltq
	leaq	0(,%rax,8), %rdx
	leaq	chinfo(%rip), %rax
	movl	(%rdx,%rax), %eax
	cmpl	$6, %eax
	je	.L136
	.loc 2 1139 0 discriminator 1
	movl	-36(%rbp), %eax
	cltq
	leaq	0(,%rax,8), %rdx
	leaq	chinfo(%rip), %rax
	movl	(%rdx,%rax), %eax
	.loc 2 1138 0 discriminator 1
	cmpl	$5, %eax
	jne	.L137
.L136:
	.loc 2 1140 0
	movq	-48(%rbp), %rax
	movl	208(%rax), %eax
	movl	-36(%rbp), %esi
	movl	$2, %ecx
	movl	$1, %edx
	movl	%eax, %edi
	call	SetChanReturnType@PLT
	jmp	.L138
.L137:
	.loc 2 1141 0
	movl	-36(%rbp), %eax
	cltq
	leaq	0(,%rax,8), %rdx
	leaq	chinfo(%rip), %rax
	movl	(%rdx,%rax), %eax
	cmpl	$1, %eax
	jne	.L138
	.loc 2 1142 0
	movq	-48(%rbp), %rax
	movl	208(%rax), %eax
	movl	-36(%rbp), %esi
	movl	$4, %ecx
	movl	$1, %edx
	movl	%eax, %edi
	call	SetChanReturnType@PLT
.L138:
	.loc 2 1136 0
	addl	$1, -36(%rbp)
.L135:
	.loc 2 1136 0 is_stmt 0 discriminator 1
	cmpl	$124, -36(%rbp)
	jle	.L139
	.loc 2 1145 0 is_stmt 1
	movq	-48(%rbp), %rax
	movl	-68(%rbp), %esi
	movq	$0, 88(%rsp)
	movq	$0, 80(%rsp)
	leaq	PrepareRetbufs(%rip), %rdx
	movq	%rdx, 72(%rsp)
	leaq	ReadMeasurements(%rip), %rdx
	movq	%rdx, 64(%rsp)
	leaq	AbortMeasurements(%rip), %rdx
	movq	%rdx, 56(%rsp)
	leaq	TrggrMeasurements(%rip), %rdx
	movq	%rdx, 48(%rsp)
	leaq	StartMeasurements(%rip), %rdx
	movq	%rdx, 40(%rsp)
	movl	$-1, 32(%rsp)
	movl	$-1, 24(%rsp)
	movl	$19, 16(%rsp)
	movl	$18, 8(%rsp)
	movl	$50, (%rsp)
	movl	$11, %r9d
	movl	$13, %r8d
	movl	$12, %ecx
	movl	$10, %edx
	movq	%rax, %rdi
	call	pzframe_drv_init@PLT
	.loc 2 1152 0
	movq	-48(%rbp), %rax
	movq	%rax, %rdi
	call	InitParams
.L134:
	.loc 2 1153 0
	addq	$168, %rsp
	popq	%rbx
	popq	%r12
	popq	%r13
	popq	%rbp
	.cfi_def_cfa 7, 8
	ret
	.cfi_endproc
.LFE37:
	.size	adc1000_init_d, .-adc1000_init_d
	.type	adc1000_term_d, @function
adc1000_term_d:
.LFB38:
	.loc 2 1156 0
	.cfi_startproc
	pushq	%rbp
	.cfi_def_cfa_offset 16
	.cfi_offset 6, -16
	movq	%rsp, %rbp
	.cfi_def_cfa_register 6
	subq	$32, %rsp
	movl	%edi, -20(%rbp)
	movq	%rsi, -32(%rbp)
	.loc 2 1157 0
	movq	-32(%rbp), %rax
	movq	%rax, -8(%rbp)
	.loc 2 1159 0
	movq	-8(%rbp), %rax
	movl	212(%rax), %eax
	testl	%eax, %eax
	jns	.L141
	.loc 2 1159 0 is_stmt 0 discriminator 1
	jmp	.L140
.L141:
	.loc 2 1161 0 is_stmt 1
	movq	-8(%rbp), %rax
	movq	%rax, %rdi
	call	StopDevice
	.loc 2 1162 0
	movq	-8(%rbp), %rax
	movq	%rax, %rdi
	call	pzframe_drv_term@PLT
.L140:
	.loc 2 1163 0
	leave
	.cfi_def_cfa 7, 8
	ret
	.cfi_endproc
.LFE38:
	.size	adc1000_term_d, .-adc1000_term_d
	.globl	adc1000_driver_modrec
	.section	.rodata
.LC33:
	.string	"adc1000"
.LC34:
	.string	"adc1000 fast-ADC"
.LC35:
	.string	"vme"
	.section	.data.rel.local
	.align 32
	.type	adc1000_driver_modrec, @object
	.size	adc1000_driver_modrec, 136
adc1000_driver_modrec:
	.long	305419896
	.long	110000000
	.quad	.LC33
	.quad	.LC34
	.quad	0
	.quad	0
	.quad	121736
	.quad	adc1000_params
	.long	5
	.long	5
	.quad	.LC35
	.long	10000000
	.zero	4
	.quad	0
	.long	-1
	.zero	4
	.quad	0
	.quad	0
	.quad	adc1000_init_d
	.quad	adc1000_term_d
	.quad	adc1000_rw_p
	.section	.rodata
	.align 16
	.type	__FUNCTION__.5952, @object
	.size	__FUNCTION__.5952, 18
__FUNCTION__.5952:
	.string	"ActivatePLLPreset"
	.type	__FUNCTION__.5973, @object
	.size	__FUNCTION__.5973, 11
__FUNCTION__.5973:
	.string	"InitParams"
	.local	total_irqs.6120
	.comm	total_irqs.6120,4,4
	.text
.Letext0:
	.file 3 "/usr/include/bits/types.h"
	.file 4 "/usr/lib/gcc/x86_64-redhat-linux/4.8.5/include/stddef.h"
	.file 5 "/usr/include/bits/time.h"
	.file 6 "../../../../4cx/src/../exports/include/misc_types.h"
	.file 7 "../../../../4cx/src/../exports/include/cx.h"
	.file 8 "../../../../4cx/src/../exports/include/cx_module.h"
	.file 9 "/usr/include/libio.h"
	.file 10 "/usr/lib/gcc/x86_64-redhat-linux/4.8.5/include/stdarg.h"
	.file 11 "<built-in>"
	.file 12 "/usr/include/stdio.h"
	.file 13 "../../../../4cx/src/../exports/include/misc_sepchars.h"
	.file 14 "../../../../4cx/src/../exports/include/paramstr_parser.h"
	.file 15 "../../../../4cx/src/../exports/include/cxscheduler.h"
	.file 16 "../../../../4cx/src/../exports/include/cxsd_driver.h"
	.file 17 "../../../../4cx/src/../exports/include/pzframe_drv.h"
	.file 18 "../../../include/vme_lyr.h"
	.file 19 "../src/adc4x250_defs.h"
	.file 20 "../../../include/drv_i/adc250_drv_i.h"
	.file 21 "../../../include/drv_i/adc1000_drv_i.h"
	.section	.note.GNU-stack,"",@progbits
